
bomb:     file format elf64-x86-64


Disassembly of section .init:

0000000000401000 <_init>:
  401000:	48 83 ec 08          	sub    $0x8,%rsp
  401004:	48 8b 05 ed 3f 00 00 	mov    0x3fed(%rip),%rax        # 404ff8 <__gmon_start__>
  40100b:	48 85 c0             	test   %rax,%rax
  40100e:	74 02                	je     401012 <_init+0x12>
  401010:	ff d0                	callq  *%rax
  401012:	48 83 c4 08          	add    $0x8,%rsp
  401016:	c3                   	retq   

Disassembly of section .plt:

0000000000401020 <.plt>:
  401020:	ff 35 e2 3f 00 00    	pushq  0x3fe2(%rip)        # 405008 <_GLOBAL_OFFSET_TABLE_+0x8>
  401026:	ff 25 e4 3f 00 00    	jmpq   *0x3fe4(%rip)        # 405010 <_GLOBAL_OFFSET_TABLE_+0x10>
  40102c:	0f 1f 40 00          	nopl   0x0(%rax)

0000000000401030 <getenv@plt>:
  401030:	ff 25 e2 3f 00 00    	jmpq   *0x3fe2(%rip)        # 405018 <getenv@GLIBC_2.2.5>
  401036:	68 00 00 00 00       	pushq  $0x0
  40103b:	e9 e0 ff ff ff       	jmpq   401020 <.plt>

0000000000401040 <__errno_location@plt>:
  401040:	ff 25 da 3f 00 00    	jmpq   *0x3fda(%rip)        # 405020 <__errno_location@GLIBC_2.2.5>
  401046:	68 01 00 00 00       	pushq  $0x1
  40104b:	e9 d0 ff ff ff       	jmpq   401020 <.plt>

0000000000401050 <strcpy@plt>:
  401050:	ff 25 d2 3f 00 00    	jmpq   *0x3fd2(%rip)        # 405028 <strcpy@GLIBC_2.2.5>
  401056:	68 02 00 00 00       	pushq  $0x2
  40105b:	e9 c0 ff ff ff       	jmpq   401020 <.plt>

0000000000401060 <puts@plt>:
  401060:	ff 25 ca 3f 00 00    	jmpq   *0x3fca(%rip)        # 405030 <puts@GLIBC_2.2.5>
  401066:	68 03 00 00 00       	pushq  $0x3
  40106b:	e9 b0 ff ff ff       	jmpq   401020 <.plt>

0000000000401070 <write@plt>:
  401070:	ff 25 c2 3f 00 00    	jmpq   *0x3fc2(%rip)        # 405038 <write@GLIBC_2.2.5>
  401076:	68 04 00 00 00       	pushq  $0x4
  40107b:	e9 a0 ff ff ff       	jmpq   401020 <.plt>

0000000000401080 <fclose@plt>:
  401080:	ff 25 ba 3f 00 00    	jmpq   *0x3fba(%rip)        # 405040 <fclose@GLIBC_2.2.5>
  401086:	68 05 00 00 00       	pushq  $0x5
  40108b:	e9 90 ff ff ff       	jmpq   401020 <.plt>

0000000000401090 <strlen@plt>:
  401090:	ff 25 b2 3f 00 00    	jmpq   *0x3fb2(%rip)        # 405048 <strlen@GLIBC_2.2.5>
  401096:	68 06 00 00 00       	pushq  $0x6
  40109b:	e9 80 ff ff ff       	jmpq   401020 <.plt>

00000000004010a0 <system@plt>:
  4010a0:	ff 25 aa 3f 00 00    	jmpq   *0x3faa(%rip)        # 405050 <system@GLIBC_2.2.5>
  4010a6:	68 07 00 00 00       	pushq  $0x7
  4010ab:	e9 70 ff ff ff       	jmpq   401020 <.plt>

00000000004010b0 <printf@plt>:
  4010b0:	ff 25 a2 3f 00 00    	jmpq   *0x3fa2(%rip)        # 405058 <printf@GLIBC_2.2.5>
  4010b6:	68 08 00 00 00       	pushq  $0x8
  4010bb:	e9 60 ff ff ff       	jmpq   401020 <.plt>

00000000004010c0 <rewind@plt>:
  4010c0:	ff 25 9a 3f 00 00    	jmpq   *0x3f9a(%rip)        # 405060 <rewind@GLIBC_2.2.5>
  4010c6:	68 09 00 00 00       	pushq  $0x9
  4010cb:	e9 50 ff ff ff       	jmpq   401020 <.plt>

00000000004010d0 <dup@plt>:
  4010d0:	ff 25 92 3f 00 00    	jmpq   *0x3f92(%rip)        # 405068 <dup@GLIBC_2.2.5>
  4010d6:	68 0a 00 00 00       	pushq  $0xa
  4010db:	e9 40 ff ff ff       	jmpq   401020 <.plt>

00000000004010e0 <close@plt>:
  4010e0:	ff 25 8a 3f 00 00    	jmpq   *0x3f8a(%rip)        # 405070 <close@GLIBC_2.2.5>
  4010e6:	68 0b 00 00 00       	pushq  $0xb
  4010eb:	e9 30 ff ff ff       	jmpq   401020 <.plt>

00000000004010f0 <fputc@plt>:
  4010f0:	ff 25 82 3f 00 00    	jmpq   *0x3f82(%rip)        # 405078 <fputc@GLIBC_2.2.5>
  4010f6:	68 0c 00 00 00       	pushq  $0xc
  4010fb:	e9 20 ff ff ff       	jmpq   401020 <.plt>

0000000000401100 <fgets@plt>:
  401100:	ff 25 7a 3f 00 00    	jmpq   *0x3f7a(%rip)        # 405080 <fgets@GLIBC_2.2.5>
  401106:	68 0d 00 00 00       	pushq  $0xd
  40110b:	e9 10 ff ff ff       	jmpq   401020 <.plt>

0000000000401110 <tmpfile@plt>:
  401110:	ff 25 72 3f 00 00    	jmpq   *0x3f72(%rip)        # 405088 <tmpfile@GLIBC_2.2.5>
  401116:	68 0e 00 00 00       	pushq  $0xe
  40111b:	e9 00 ff ff ff       	jmpq   401020 <.plt>

0000000000401120 <signal@plt>:
  401120:	ff 25 6a 3f 00 00    	jmpq   *0x3f6a(%rip)        # 405090 <signal@GLIBC_2.2.5>
  401126:	68 0f 00 00 00       	pushq  $0xf
  40112b:	e9 f0 fe ff ff       	jmpq   401020 <.plt>

0000000000401130 <gethostbyname@plt>:
  401130:	ff 25 62 3f 00 00    	jmpq   *0x3f62(%rip)        # 405098 <gethostbyname@GLIBC_2.2.5>
  401136:	68 10 00 00 00       	pushq  $0x10
  40113b:	e9 e0 fe ff ff       	jmpq   401020 <.plt>

0000000000401140 <fprintf@plt>:
  401140:	ff 25 5a 3f 00 00    	jmpq   *0x3f5a(%rip)        # 4050a0 <fprintf@GLIBC_2.2.5>
  401146:	68 11 00 00 00       	pushq  $0x11
  40114b:	e9 d0 fe ff ff       	jmpq   401020 <.plt>

0000000000401150 <inet_pton@plt>:
  401150:	ff 25 52 3f 00 00    	jmpq   *0x3f52(%rip)        # 4050a8 <inet_pton@GLIBC_2.2.5>
  401156:	68 12 00 00 00       	pushq  $0x12
  40115b:	e9 c0 fe ff ff       	jmpq   401020 <.plt>

0000000000401160 <fflush@plt>:
  401160:	ff 25 4a 3f 00 00    	jmpq   *0x3f4a(%rip)        # 4050b0 <fflush@GLIBC_2.2.5>
  401166:	68 13 00 00 00       	pushq  $0x13
  40116b:	e9 b0 fe ff ff       	jmpq   401020 <.plt>

0000000000401170 <__isoc99_sscanf@plt>:
  401170:	ff 25 42 3f 00 00    	jmpq   *0x3f42(%rip)        # 4050b8 <__isoc99_sscanf@GLIBC_2.7>
  401176:	68 14 00 00 00       	pushq  $0x14
  40117b:	e9 a0 fe ff ff       	jmpq   401020 <.plt>

0000000000401180 <memmove@plt>:
  401180:	ff 25 3a 3f 00 00    	jmpq   *0x3f3a(%rip)        # 4050c0 <memmove@GLIBC_2.2.5>
  401186:	68 15 00 00 00       	pushq  $0x15
  40118b:	e9 90 fe ff ff       	jmpq   401020 <.plt>

0000000000401190 <cuserid@plt>:
  401190:	ff 25 32 3f 00 00    	jmpq   *0x3f32(%rip)        # 4050c8 <cuserid@GLIBC_2.2.5>
  401196:	68 16 00 00 00       	pushq  $0x16
  40119b:	e9 80 fe ff ff       	jmpq   401020 <.plt>

00000000004011a0 <fopen@plt>:
  4011a0:	ff 25 2a 3f 00 00    	jmpq   *0x3f2a(%rip)        # 4050d0 <fopen@GLIBC_2.2.5>
  4011a6:	68 17 00 00 00       	pushq  $0x17
  4011ab:	e9 70 fe ff ff       	jmpq   401020 <.plt>

00000000004011b0 <strcat@plt>:
  4011b0:	ff 25 22 3f 00 00    	jmpq   *0x3f22(%rip)        # 4050d8 <strcat@GLIBC_2.2.5>
  4011b6:	68 18 00 00 00       	pushq  $0x18
  4011bb:	e9 60 fe ff ff       	jmpq   401020 <.plt>

00000000004011c0 <sprintf@plt>:
  4011c0:	ff 25 1a 3f 00 00    	jmpq   *0x3f1a(%rip)        # 4050e0 <sprintf@GLIBC_2.2.5>
  4011c6:	68 19 00 00 00       	pushq  $0x19
  4011cb:	e9 50 fe ff ff       	jmpq   401020 <.plt>

00000000004011d0 <exit@plt>:
  4011d0:	ff 25 12 3f 00 00    	jmpq   *0x3f12(%rip)        # 4050e8 <exit@GLIBC_2.2.5>
  4011d6:	68 1a 00 00 00       	pushq  $0x1a
  4011db:	e9 40 fe ff ff       	jmpq   401020 <.plt>

00000000004011e0 <connect@plt>:
  4011e0:	ff 25 0a 3f 00 00    	jmpq   *0x3f0a(%rip)        # 4050f0 <connect@GLIBC_2.2.5>
  4011e6:	68 1b 00 00 00       	pushq  $0x1b
  4011eb:	e9 30 fe ff ff       	jmpq   401020 <.plt>

00000000004011f0 <fwrite@plt>:
  4011f0:	ff 25 02 3f 00 00    	jmpq   *0x3f02(%rip)        # 4050f8 <fwrite@GLIBC_2.2.5>
  4011f6:	68 1c 00 00 00       	pushq  $0x1c
  4011fb:	e9 20 fe ff ff       	jmpq   401020 <.plt>

0000000000401200 <sleep@plt>:
  401200:	ff 25 fa 3e 00 00    	jmpq   *0x3efa(%rip)        # 405100 <sleep@GLIBC_2.2.5>
  401206:	68 1d 00 00 00       	pushq  $0x1d
  40120b:	e9 10 fe ff ff       	jmpq   401020 <.plt>

0000000000401210 <__ctype_b_loc@plt>:
  401210:	ff 25 f2 3e 00 00    	jmpq   *0x3ef2(%rip)        # 405108 <__ctype_b_loc@GLIBC_2.3>
  401216:	68 1e 00 00 00       	pushq  $0x1e
  40121b:	e9 00 fe ff ff       	jmpq   401020 <.plt>

0000000000401220 <socket@plt>:
  401220:	ff 25 ea 3e 00 00    	jmpq   *0x3eea(%rip)        # 405110 <socket@GLIBC_2.2.5>
  401226:	68 1f 00 00 00       	pushq  $0x1f
  40122b:	e9 f0 fd ff ff       	jmpq   401020 <.plt>

Disassembly of section .text:

0000000000401230 <_start>:
  401230:	31 ed                	xor    %ebp,%ebp
  401232:	49 89 d1             	mov    %rdx,%r9
  401235:	5e                   	pop    %rsi
  401236:	48 89 e2             	mov    %rsp,%rdx
  401239:	48 83 e4 f0          	and    $0xfffffffffffffff0,%rsp
  40123d:	50                   	push   %rax
  40123e:	54                   	push   %rsp
  40123f:	49 c7 c0 70 20 40 00 	mov    $0x402070,%r8
  401246:	48 c7 c1 10 20 40 00 	mov    $0x402010,%rcx
  40124d:	48 c7 c7 12 13 40 00 	mov    $0x401312,%rdi
  401254:	ff 15 96 3d 00 00    	callq  *0x3d96(%rip)        # 404ff0 <__libc_start_main@GLIBC_2.2.5>
  40125a:	f4                   	hlt    
  40125b:	0f 1f 44 00 00       	nopl   0x0(%rax,%rax,1)

0000000000401260 <_dl_relocate_static_pie>:
  401260:	c3                   	retq   
  401261:	66 2e 0f 1f 84 00 00 	nopw   %cs:0x0(%rax,%rax,1)
  401268:	00 00 00 
  40126b:	0f 1f 44 00 00       	nopl   0x0(%rax,%rax,1)

0000000000401270 <deregister_tm_clones>:
  401270:	b8 48 55 40 00       	mov    $0x405548,%eax
  401275:	48 3d 48 55 40 00    	cmp    $0x405548,%rax
  40127b:	74 13                	je     401290 <deregister_tm_clones+0x20>
  40127d:	b8 00 00 00 00       	mov    $0x0,%eax
  401282:	48 85 c0             	test   %rax,%rax
  401285:	74 09                	je     401290 <deregister_tm_clones+0x20>
  401287:	bf 48 55 40 00       	mov    $0x405548,%edi
  40128c:	ff e0                	jmpq   *%rax
  40128e:	66 90                	xchg   %ax,%ax
  401290:	c3                   	retq   
  401291:	66 66 2e 0f 1f 84 00 	data16 nopw %cs:0x0(%rax,%rax,1)
  401298:	00 00 00 00 
  40129c:	0f 1f 40 00          	nopl   0x0(%rax)

00000000004012a0 <register_tm_clones>:
  4012a0:	be 48 55 40 00       	mov    $0x405548,%esi
  4012a5:	48 81 ee 48 55 40 00 	sub    $0x405548,%rsi
  4012ac:	48 89 f0             	mov    %rsi,%rax
  4012af:	48 c1 ee 3f          	shr    $0x3f,%rsi
  4012b3:	48 c1 f8 03          	sar    $0x3,%rax
  4012b7:	48 01 c6             	add    %rax,%rsi
  4012ba:	48 d1 fe             	sar    %rsi
  4012bd:	74 11                	je     4012d0 <register_tm_clones+0x30>
  4012bf:	b8 00 00 00 00       	mov    $0x0,%eax
  4012c4:	48 85 c0             	test   %rax,%rax
  4012c7:	74 07                	je     4012d0 <register_tm_clones+0x30>
  4012c9:	bf 48 55 40 00       	mov    $0x405548,%edi
  4012ce:	ff e0                	jmpq   *%rax
  4012d0:	c3                   	retq   
  4012d1:	66 66 2e 0f 1f 84 00 	data16 nopw %cs:0x0(%rax,%rax,1)
  4012d8:	00 00 00 00 
  4012dc:	0f 1f 40 00          	nopl   0x0(%rax)

00000000004012e0 <__do_global_dtors_aux>:
  4012e0:	80 3d 91 42 00 00 00 	cmpb   $0x0,0x4291(%rip)        # 405578 <completed.0>
  4012e7:	75 17                	jne    401300 <__do_global_dtors_aux+0x20>
  4012e9:	55                   	push   %rbp
  4012ea:	48 89 e5             	mov    %rsp,%rbp
  4012ed:	e8 7e ff ff ff       	callq  401270 <deregister_tm_clones>
  4012f2:	c6 05 7f 42 00 00 01 	movb   $0x1,0x427f(%rip)        # 405578 <completed.0>
  4012f9:	5d                   	pop    %rbp
  4012fa:	c3                   	retq   
  4012fb:	0f 1f 44 00 00       	nopl   0x0(%rax,%rax,1)
  401300:	c3                   	retq   
  401301:	66 66 2e 0f 1f 84 00 	data16 nopw %cs:0x0(%rax,%rax,1)
  401308:	00 00 00 00 
  40130c:	0f 1f 40 00          	nopl   0x0(%rax)

0000000000401310 <frame_dummy>:
  401310:	eb 8e                	jmp    4012a0 <register_tm_clones>

0000000000401312 <main>:
  401312:	53                   	push   %rbx
  401313:	83 ff 01             	cmp    $0x1,%edi
  401316:	0f 84 9e 00 00 00    	je     4013ba <main+0xa8>
  40131c:	48 89 f3             	mov    %rsi,%rbx
  40131f:	83 ff 02             	cmp    $0x2,%edi
  401322:	0f 85 c2 00 00 00    	jne    4013ea <main+0xd8>
  401328:	48 8b 7e 08          	mov    0x8(%rsi),%rdi
  40132c:	48 8d 35 80 20 00 00 	lea    0x2080(%rip),%rsi        # 4033b3 <array.0+0x253>
  401333:	e8 68 fe ff ff       	callq  4011a0 <fopen@plt>
  401338:	48 89 05 41 42 00 00 	mov    %rax,0x4241(%rip)        # 405580 <infile>
  40133f:	48 85 c0             	test   %rax,%rax
  401342:	0f 84 85 00 00 00    	je     4013cd <main+0xbb>
  401348:	e8 f6 03 00 00       	callq  401743 <initialize_bomb>
  40134d:	48 8d 3d 0c 1d 00 00 	lea    0x1d0c(%rip),%rdi        # 403060 <_IO_stdin_used+0x60>
  401354:	e8 07 fd ff ff       	callq  401060 <puts@plt>
  401359:	48 8d 3d 40 1d 00 00 	lea    0x1d40(%rip),%rdi        # 4030a0 <_IO_stdin_used+0xa0>
  401360:	e8 fb fc ff ff       	callq  401060 <puts@plt>
  401365:	e8 f6 0a 00 00       	callq  401e60 <read_line>
  40136a:	48 89 c7             	mov    %rax,%rdi
  40136d:	e8 96 00 00 00       	callq  401408 <phase_1>
  401372:	e8 dd 0b 00 00       	callq  401f54 <phase_defused>
  401377:	48 8d 3d 52 1d 00 00 	lea    0x1d52(%rip),%rdi        # 4030d0 <_IO_stdin_used+0xd0>
  40137e:	e8 dd fc ff ff       	callq  401060 <puts@plt>
  401383:	e8 d8 0a 00 00       	callq  401e60 <read_line>
  401388:	48 89 c7             	mov    %rax,%rdi
  40138b:	e8 98 00 00 00       	callq  401428 <phase_2>
  401390:	e8 bf 0b 00 00       	callq  401f54 <phase_defused>
  401395:	48 8d 3d 9f 1c 00 00 	lea    0x1c9f(%rip),%rdi        # 40303b <_IO_stdin_used+0x3b>
  40139c:	e8 bf fc ff ff       	callq  401060 <puts@plt>
  4013a1:	e8 ba 0a 00 00       	callq  401e60 <read_line>
  4013a6:	48 89 c7             	mov    %rax,%rdi
  4013a9:	e8 b8 00 00 00       	callq  401466 <phase_3>
  4013ae:	e8 a1 0b 00 00       	callq  401f54 <phase_defused>
  4013b3:	b8 00 00 00 00       	mov    $0x0,%eax
  4013b8:	5b                   	pop    %rbx
  4013b9:	c3                   	retq   
  4013ba:	48 8b 05 af 41 00 00 	mov    0x41af(%rip),%rax        # 405570 <stdin@@GLIBC_2.2.5>
  4013c1:	48 89 05 b8 41 00 00 	mov    %rax,0x41b8(%rip)        # 405580 <infile>
  4013c8:	e9 7b ff ff ff       	jmpq   401348 <main+0x36>
  4013cd:	48 8b 53 08          	mov    0x8(%rbx),%rdx
  4013d1:	48 8b 33             	mov    (%rbx),%rsi
  4013d4:	48 8d 3d 29 1c 00 00 	lea    0x1c29(%rip),%rdi        # 403004 <_IO_stdin_used+0x4>
  4013db:	e8 d0 fc ff ff       	callq  4010b0 <printf@plt>
  4013e0:	bf 08 00 00 00       	mov    $0x8,%edi
  4013e5:	e8 e6 fd ff ff       	callq  4011d0 <exit@plt>
  4013ea:	48 8b 36             	mov    (%rsi),%rsi
  4013ed:	48 8d 3d 2d 1c 00 00 	lea    0x1c2d(%rip),%rdi        # 403021 <_IO_stdin_used+0x21>
  4013f4:	b8 00 00 00 00       	mov    $0x0,%eax
  4013f9:	e8 b2 fc ff ff       	callq  4010b0 <printf@plt>
  4013fe:	bf 08 00 00 00       	mov    $0x8,%edi
  401403:	e8 c8 fd ff ff       	callq  4011d0 <exit@plt>

0000000000401408 <phase_1>:
  401408:	48 83 ec 08          	sub    $0x8,%rsp
  40140c:	48 8d 35 ed 1c 00 00 	lea    0x1ced(%rip),%rsi        # 403100 <_IO_stdin_used+0x100>
  401413:	e8 ff 01 00 00       	callq  401617 <strings_not_equal>
  401418:	85 c0                	test   %eax,%eax
  40141a:	75 05                	jne    401421 <phase_1+0x19>
  40141c:	48 83 c4 08          	add    $0x8,%rsp
  401420:	c3                   	retq   
  401421:	e8 bd 09 00 00       	callq  401de3 <explode_bomb>
  401426:	eb f4                	jmp    40141c <phase_1+0x14>

0000000000401428 <phase_2>:
  401428:	55                   	push   %rbp
  401429:	53                   	push   %rbx
  40142a:	48 83 ec 28          	sub    $0x28,%rsp
  40142e:	48 89 e3             	mov    %rsp,%rbx
  401431:	48 89 de             	mov    %rbx,%rsi
  401434:	e8 e6 09 00 00       	callq  401e1f <read_six_numbers>
  401439:	bd 01 00 00 00       	mov    $0x1,%ebp
  40143e:	eb 0c                	jmp    40144c <phase_2+0x24>
  401440:	83 c5 01             	add    $0x1,%ebp
  401443:	48 83 c3 04          	add    $0x4,%rbx
  401447:	83 fd 06             	cmp    $0x6,%ebp
  40144a:	74 13                	je     40145f <phase_2+0x37>
  40144c:	8b 03                	mov    (%rbx),%eax
  40144e:	83 c0 04             	add    $0x4,%eax
  401451:	29 e8                	sub    %ebp,%eax
  401453:	39 43 04             	cmp    %eax,0x4(%rbx)
  401456:	74 e8                	je     401440 <phase_2+0x18>
  401458:	e8 86 09 00 00       	callq  401de3 <explode_bomb>
  40145d:	eb e1                	jmp    401440 <phase_2+0x18>
  40145f:	48 83 c4 28          	add    $0x28,%rsp
  401463:	5b                   	pop    %rbx
  401464:	5d                   	pop    %rbp
  401465:	c3                   	retq   

0000000000401466 <phase_3>:
  401466:	48 83 ec 18          	sub    $0x18,%rsp
  40146a:	48 8d 4c 24 08       	lea    0x8(%rsp),%rcx
  40146f:	48 8d 54 24 0c       	lea    0xc(%rsp),%rdx
  401474:	48 8d 35 44 20 00 00 	lea    0x2044(%rip),%rsi        # 4034bf <array.0+0x35f>
  40147b:	b8 00 00 00 00       	mov    $0x0,%eax
  401480:	e8 eb fc ff ff       	callq  401170 <__isoc99_sscanf@plt>
  401485:	83 f8 01             	cmp    $0x1,%eax
  401488:	7e 1f                	jle    4014a9 <phase_3+0x43>
  40148a:	83 7c 24 0c 07       	cmpl   $0x7,0xc(%rsp)
  40148f:	0f 87 8b 00 00 00    	ja     401520 <phase_3+0xba>
  401495:	8b 44 24 0c          	mov    0xc(%rsp),%eax
  401499:	48 8d 15 a0 1c 00 00 	lea    0x1ca0(%rip),%rdx        # 403140 <_IO_stdin_used+0x140>
  4014a0:	48 63 04 82          	movslq (%rdx,%rax,4),%rax
  4014a4:	48 01 d0             	add    %rdx,%rax
  4014a7:	ff e0                	jmpq   *%rax
  4014a9:	e8 35 09 00 00       	callq  401de3 <explode_bomb>
  4014ae:	eb da                	jmp    40148a <phase_3+0x24>
  4014b0:	b8 48 03 00 00       	mov    $0x348,%eax
  4014b5:	2d e0 01 00 00       	sub    $0x1e0,%eax
  4014ba:	05 d6 02 00 00       	add    $0x2d6,%eax
  4014bf:	2d 7a 02 00 00       	sub    $0x27a,%eax
  4014c4:	05 e5 02 00 00       	add    $0x2e5,%eax
  4014c9:	2d 9f 03 00 00       	sub    $0x39f,%eax
  4014ce:	05 9f 03 00 00       	add    $0x39f,%eax
  4014d3:	2d 5a 01 00 00       	sub    $0x15a,%eax
  4014d8:	83 7c 24 0c 05       	cmpl   $0x5,0xc(%rsp)
  4014dd:	7f 06                	jg     4014e5 <phase_3+0x7f>
  4014df:	39 44 24 08          	cmp    %eax,0x8(%rsp)
  4014e3:	74 05                	je     4014ea <phase_3+0x84>
  4014e5:	e8 f9 08 00 00       	callq  401de3 <explode_bomb>
  4014ea:	48 83 c4 18          	add    $0x18,%rsp
  4014ee:	c3                   	retq   
  4014ef:	b8 00 00 00 00       	mov    $0x0,%eax
  4014f4:	eb bf                	jmp    4014b5 <phase_3+0x4f>
  4014f6:	b8 00 00 00 00       	mov    $0x0,%eax
  4014fb:	eb bd                	jmp    4014ba <phase_3+0x54>
  4014fd:	b8 00 00 00 00       	mov    $0x0,%eax
  401502:	eb bb                	jmp    4014bf <phase_3+0x59>
  401504:	b8 00 00 00 00       	mov    $0x0,%eax
  401509:	eb b9                	jmp    4014c4 <phase_3+0x5e>
  40150b:	b8 00 00 00 00       	mov    $0x0,%eax
  401510:	eb b7                	jmp    4014c9 <phase_3+0x63>
  401512:	b8 00 00 00 00       	mov    $0x0,%eax
  401517:	eb b5                	jmp    4014ce <phase_3+0x68>
  401519:	b8 00 00 00 00       	mov    $0x0,%eax
  40151e:	eb b3                	jmp    4014d3 <phase_3+0x6d>
  401520:	e8 be 08 00 00       	callq  401de3 <explode_bomb>
  401525:	b8 00 00 00 00       	mov    $0x0,%eax
  40152a:	eb ac                	jmp    4014d8 <phase_3+0x72>

000000000040152c <secret_phase>:
  40152c:	53                   	push   %rbx
  40152d:	e8 2e 09 00 00       	callq  401e60 <read_line>
  401532:	48 89 c3             	mov    %rax,%rbx
  401535:	48 89 c7             	mov    %rax,%rdi
  401538:	e8 bd 00 00 00       	callq  4015fa <string_length>
  40153d:	83 f8 06             	cmp    $0x6,%eax
  401540:	75 31                	jne    401573 <secret_phase+0x47>
  401542:	48 89 d8             	mov    %rbx,%rax
  401545:	48 8d 73 06          	lea    0x6(%rbx),%rsi
  401549:	b9 00 00 00 00       	mov    $0x0,%ecx
  40154e:	48 8d 3d 0b 1c 00 00 	lea    0x1c0b(%rip),%rdi        # 403160 <array.0>
  401555:	0f b6 10             	movzbl (%rax),%edx
  401558:	83 e2 0f             	and    $0xf,%edx
  40155b:	03 0c 97             	add    (%rdi,%rdx,4),%ecx
  40155e:	48 83 c0 01          	add    $0x1,%rax
  401562:	48 39 f0             	cmp    %rsi,%rax
  401565:	75 ee                	jne    401555 <secret_phase+0x29>
  401567:	83 f9 3b             	cmp    $0x3b,%ecx
  40156a:	75 0e                	jne    40157a <secret_phase+0x4e>
  40156c:	e8 e3 09 00 00       	callq  401f54 <phase_defused>
  401571:	5b                   	pop    %rbx
  401572:	c3                   	retq   
  401573:	e8 6b 08 00 00       	callq  401de3 <explode_bomb>
  401578:	eb c8                	jmp    401542 <secret_phase+0x16>
  40157a:	e8 64 08 00 00       	callq  401de3 <explode_bomb>
  40157f:	eb eb                	jmp    40156c <secret_phase+0x40>

0000000000401581 <sig_handler>:
  401581:	48 83 ec 08          	sub    $0x8,%rsp
  401585:	48 8d 3d 14 1c 00 00 	lea    0x1c14(%rip),%rdi        # 4031a0 <array.0+0x40>
  40158c:	e8 cf fa ff ff       	callq  401060 <puts@plt>
  401591:	bf 03 00 00 00       	mov    $0x3,%edi
  401596:	e8 65 fc ff ff       	callq  401200 <sleep@plt>
  40159b:	48 8d 3d 2f 1d 00 00 	lea    0x1d2f(%rip),%rdi        # 4032d1 <array.0+0x171>
  4015a2:	b8 00 00 00 00       	mov    $0x0,%eax
  4015a7:	e8 04 fb ff ff       	callq  4010b0 <printf@plt>
  4015ac:	48 8b 3d ad 3f 00 00 	mov    0x3fad(%rip),%rdi        # 405560 <stdout@@GLIBC_2.2.5>
  4015b3:	e8 a8 fb ff ff       	callq  401160 <fflush@plt>
  4015b8:	bf 01 00 00 00       	mov    $0x1,%edi
  4015bd:	e8 3e fc ff ff       	callq  401200 <sleep@plt>
  4015c2:	48 8d 3d 10 1d 00 00 	lea    0x1d10(%rip),%rdi        # 4032d9 <array.0+0x179>
  4015c9:	e8 92 fa ff ff       	callq  401060 <puts@plt>
  4015ce:	bf 10 00 00 00       	mov    $0x10,%edi
  4015d3:	e8 f8 fb ff ff       	callq  4011d0 <exit@plt>

00000000004015d8 <invalid_phase>:
  4015d8:	48 83 ec 08          	sub    $0x8,%rsp
  4015dc:	48 89 fe             	mov    %rdi,%rsi
  4015df:	48 8d 3d fb 1c 00 00 	lea    0x1cfb(%rip),%rdi        # 4032e1 <array.0+0x181>
  4015e6:	b8 00 00 00 00       	mov    $0x0,%eax
  4015eb:	e8 c0 fa ff ff       	callq  4010b0 <printf@plt>
  4015f0:	bf 08 00 00 00       	mov    $0x8,%edi
  4015f5:	e8 d6 fb ff ff       	callq  4011d0 <exit@plt>

00000000004015fa <string_length>:
  4015fa:	80 3f 00             	cmpb   $0x0,(%rdi)
  4015fd:	74 12                	je     401611 <string_length+0x17>
  4015ff:	b8 00 00 00 00       	mov    $0x0,%eax
  401604:	48 83 c7 01          	add    $0x1,%rdi
  401608:	83 c0 01             	add    $0x1,%eax
  40160b:	80 3f 00             	cmpb   $0x0,(%rdi)
  40160e:	75 f4                	jne    401604 <string_length+0xa>
  401610:	c3                   	retq   
  401611:	b8 00 00 00 00       	mov    $0x0,%eax
  401616:	c3                   	retq   

0000000000401617 <strings_not_equal>:
  401617:	41 54                	push   %r12
  401619:	55                   	push   %rbp
  40161a:	53                   	push   %rbx
  40161b:	48 89 fb             	mov    %rdi,%rbx
  40161e:	48 89 f5             	mov    %rsi,%rbp
  401621:	e8 d4 ff ff ff       	callq  4015fa <string_length>
  401626:	41 89 c4             	mov    %eax,%r12d
  401629:	48 89 ef             	mov    %rbp,%rdi
  40162c:	e8 c9 ff ff ff       	callq  4015fa <string_length>
  401631:	89 c2                	mov    %eax,%edx
  401633:	b8 01 00 00 00       	mov    $0x1,%eax
  401638:	41 39 d4             	cmp    %edx,%r12d
  40163b:	75 31                	jne    40166e <strings_not_equal+0x57>
  40163d:	0f b6 13             	movzbl (%rbx),%edx
  401640:	84 d2                	test   %dl,%dl
  401642:	74 1e                	je     401662 <strings_not_equal+0x4b>
  401644:	b8 00 00 00 00       	mov    $0x0,%eax
  401649:	38 54 05 00          	cmp    %dl,0x0(%rbp,%rax,1)
  40164d:	75 1a                	jne    401669 <strings_not_equal+0x52>
  40164f:	48 83 c0 01          	add    $0x1,%rax
  401653:	0f b6 14 03          	movzbl (%rbx,%rax,1),%edx
  401657:	84 d2                	test   %dl,%dl
  401659:	75 ee                	jne    401649 <strings_not_equal+0x32>
  40165b:	b8 00 00 00 00       	mov    $0x0,%eax
  401660:	eb 0c                	jmp    40166e <strings_not_equal+0x57>
  401662:	b8 00 00 00 00       	mov    $0x0,%eax
  401667:	eb 05                	jmp    40166e <strings_not_equal+0x57>
  401669:	b8 01 00 00 00       	mov    $0x1,%eax
  40166e:	5b                   	pop    %rbx
  40166f:	5d                   	pop    %rbp
  401670:	41 5c                	pop    %r12
  401672:	c3                   	retq   

0000000000401673 <open_clientfd>:
  401673:	41 54                	push   %r12
  401675:	55                   	push   %rbp
  401676:	53                   	push   %rbx
  401677:	48 83 ec 10          	sub    $0x10,%rsp
  40167b:	48 89 fd             	mov    %rdi,%rbp
  40167e:	41 89 f4             	mov    %esi,%r12d
  401681:	ba 00 00 00 00       	mov    $0x0,%edx
  401686:	be 01 00 00 00       	mov    $0x1,%esi
  40168b:	bf 02 00 00 00       	mov    $0x2,%edi
  401690:	e8 8b fb ff ff       	callq  401220 <socket@plt>
  401695:	85 c0                	test   %eax,%eax
  401697:	78 68                	js     401701 <open_clientfd+0x8e>
  401699:	89 c3                	mov    %eax,%ebx
  40169b:	48 89 ef             	mov    %rbp,%rdi
  40169e:	e8 8d fa ff ff       	callq  401130 <gethostbyname@plt>
  4016a3:	48 85 c0             	test   %rax,%rax
  4016a6:	74 6f                	je     401717 <open_clientfd+0xa4>
  4016a8:	48 89 e5             	mov    %rsp,%rbp
  4016ab:	48 c7 04 24 00 00 00 	movq   $0x0,(%rsp)
  4016b2:	00 
  4016b3:	48 c7 44 24 08 00 00 	movq   $0x0,0x8(%rsp)
  4016ba:	00 00 
  4016bc:	66 c7 04 24 02 00    	movw   $0x2,(%rsp)
  4016c2:	48 63 50 14          	movslq 0x14(%rax),%rdx
  4016c6:	48 8b 40 18          	mov    0x18(%rax),%rax
  4016ca:	48 8d 7c 24 04       	lea    0x4(%rsp),%rdi
  4016cf:	48 8b 30             	mov    (%rax),%rsi
  4016d2:	e8 a9 fa ff ff       	callq  401180 <memmove@plt>
  4016d7:	44 89 e6             	mov    %r12d,%esi
  4016da:	66 c1 c6 08          	rol    $0x8,%si
  4016de:	66 89 74 24 02       	mov    %si,0x2(%rsp)
  4016e3:	ba 10 00 00 00       	mov    $0x10,%edx
  4016e8:	48 89 ee             	mov    %rbp,%rsi
  4016eb:	89 df                	mov    %ebx,%edi
  4016ed:	e8 ee fa ff ff       	callq  4011e0 <connect@plt>
  4016f2:	85 c0                	test   %eax,%eax
  4016f4:	78 37                	js     40172d <open_clientfd+0xba>
  4016f6:	89 d8                	mov    %ebx,%eax
  4016f8:	48 83 c4 10          	add    $0x10,%rsp
  4016fc:	5b                   	pop    %rbx
  4016fd:	5d                   	pop    %rbp
  4016fe:	41 5c                	pop    %r12
  401700:	c3                   	retq   
  401701:	48 8d 3d ea 1b 00 00 	lea    0x1bea(%rip),%rdi        # 4032f2 <array.0+0x192>
  401708:	e8 53 f9 ff ff       	callq  401060 <puts@plt>
  40170d:	bf 08 00 00 00       	mov    $0x8,%edi
  401712:	e8 b9 fa ff ff       	callq  4011d0 <exit@plt>
  401717:	48 8d 3d e2 1b 00 00 	lea    0x1be2(%rip),%rdi        # 403300 <array.0+0x1a0>
  40171e:	e8 3d f9 ff ff       	callq  401060 <puts@plt>
  401723:	bf 08 00 00 00       	mov    $0x8,%edi
  401728:	e8 a3 fa ff ff       	callq  4011d0 <exit@plt>
  40172d:	48 8d 3d da 1b 00 00 	lea    0x1bda(%rip),%rdi        # 40330e <array.0+0x1ae>
  401734:	e8 27 f9 ff ff       	callq  401060 <puts@plt>
  401739:	bf 08 00 00 00       	mov    $0x8,%edi
  40173e:	e8 8d fa ff ff       	callq  4011d0 <exit@plt>

0000000000401743 <initialize_bomb>:
  401743:	48 83 ec 08          	sub    $0x8,%rsp
  401747:	48 8d 35 33 fe ff ff 	lea    -0x1cd(%rip),%rsi        # 401581 <sig_handler>
  40174e:	bf 02 00 00 00       	mov    $0x2,%edi
  401753:	e8 c8 f9 ff ff       	callq  401120 <signal@plt>
  401758:	be 50 00 00 00       	mov    $0x50,%esi
  40175d:	48 8d 3d b8 1b 00 00 	lea    0x1bb8(%rip),%rdi        # 40331c <array.0+0x1bc>
  401764:	e8 0a ff ff ff       	callq  401673 <open_clientfd>
  401769:	89 c7                	mov    %eax,%edi
  40176b:	e8 70 f9 ff ff       	callq  4010e0 <close@plt>
  401770:	48 83 c4 08          	add    $0x8,%rsp
  401774:	c3                   	retq   

0000000000401775 <blank_line>:
  401775:	55                   	push   %rbp
  401776:	53                   	push   %rbx
  401777:	48 83 ec 08          	sub    $0x8,%rsp
  40177b:	48 89 fd             	mov    %rdi,%rbp
  40177e:	0f b6 5d 00          	movzbl 0x0(%rbp),%ebx
  401782:	84 db                	test   %bl,%bl
  401784:	74 1e                	je     4017a4 <blank_line+0x2f>
  401786:	e8 85 fa ff ff       	callq  401210 <__ctype_b_loc@plt>
  40178b:	48 83 c5 01          	add    $0x1,%rbp
  40178f:	48 0f be db          	movsbq %bl,%rbx
  401793:	48 8b 00             	mov    (%rax),%rax
  401796:	f6 44 58 01 20       	testb  $0x20,0x1(%rax,%rbx,2)
  40179b:	75 e1                	jne    40177e <blank_line+0x9>
  40179d:	b8 00 00 00 00       	mov    $0x0,%eax
  4017a2:	eb 05                	jmp    4017a9 <blank_line+0x34>
  4017a4:	b8 01 00 00 00       	mov    $0x1,%eax
  4017a9:	48 83 c4 08          	add    $0x8,%rsp
  4017ad:	5b                   	pop    %rbx
  4017ae:	5d                   	pop    %rbp
  4017af:	c3                   	retq   

00000000004017b0 <skip>:
  4017b0:	55                   	push   %rbp
  4017b1:	53                   	push   %rbx
  4017b2:	48 83 ec 08          	sub    $0x8,%rsp
  4017b6:	48 8d 2d 43 3e 00 00 	lea    0x3e43(%rip),%rbp        # 405600 <input_strings>
  4017bd:	48 63 05 2c 3e 00 00 	movslq 0x3e2c(%rip),%rax        # 4055f0 <num_input_strings>
  4017c4:	48 8d 3c 80          	lea    (%rax,%rax,4),%rdi
  4017c8:	48 c1 e7 04          	shl    $0x4,%rdi
  4017cc:	48 01 ef             	add    %rbp,%rdi
  4017cf:	48 8b 15 aa 3d 00 00 	mov    0x3daa(%rip),%rdx        # 405580 <infile>
  4017d6:	be 50 00 00 00       	mov    $0x50,%esi
  4017db:	e8 20 f9 ff ff       	callq  401100 <fgets@plt>
  4017e0:	48 89 c3             	mov    %rax,%rbx
  4017e3:	48 85 c0             	test   %rax,%rax
  4017e6:	74 0c                	je     4017f4 <skip+0x44>
  4017e8:	48 89 c7             	mov    %rax,%rdi
  4017eb:	e8 85 ff ff ff       	callq  401775 <blank_line>
  4017f0:	85 c0                	test   %eax,%eax
  4017f2:	75 c9                	jne    4017bd <skip+0xd>
  4017f4:	48 89 d8             	mov    %rbx,%rax
  4017f7:	48 83 c4 08          	add    $0x8,%rsp
  4017fb:	5b                   	pop    %rbx
  4017fc:	5d                   	pop    %rbp
  4017fd:	c3                   	retq   

00000000004017fe <writen>:
  4017fe:	41 56                	push   %r14
  401800:	41 55                	push   %r13
  401802:	41 54                	push   %r12
  401804:	55                   	push   %rbp
  401805:	53                   	push   %rbx
  401806:	49 89 d5             	mov    %rdx,%r13
  401809:	48 85 d2             	test   %rdx,%rdx
  40180c:	74 3b                	je     401849 <writen+0x4b>
  40180e:	41 89 fc             	mov    %edi,%r12d
  401811:	48 89 f5             	mov    %rsi,%rbp
  401814:	48 89 d3             	mov    %rdx,%rbx
  401817:	41 be 00 00 00 00    	mov    $0x0,%r14d
  40181d:	eb 08                	jmp    401827 <writen+0x29>
  40181f:	48 01 c5             	add    %rax,%rbp
  401822:	48 29 c3             	sub    %rax,%rbx
  401825:	74 22                	je     401849 <writen+0x4b>
  401827:	48 89 da             	mov    %rbx,%rdx
  40182a:	48 89 ee             	mov    %rbp,%rsi
  40182d:	44 89 e7             	mov    %r12d,%edi
  401830:	e8 3b f8 ff ff       	callq  401070 <write@plt>
  401835:	48 85 c0             	test   %rax,%rax
  401838:	7f e5                	jg     40181f <writen+0x21>
  40183a:	e8 01 f8 ff ff       	callq  401040 <__errno_location@plt>
  40183f:	83 38 04             	cmpl   $0x4,(%rax)
  401842:	75 11                	jne    401855 <writen+0x57>
  401844:	4c 89 f0             	mov    %r14,%rax
  401847:	eb d6                	jmp    40181f <writen+0x21>
  401849:	4c 89 e8             	mov    %r13,%rax
  40184c:	5b                   	pop    %rbx
  40184d:	5d                   	pop    %rbp
  40184e:	41 5c                	pop    %r12
  401850:	41 5d                	pop    %r13
  401852:	41 5e                	pop    %r14
  401854:	c3                   	retq   
  401855:	48 c7 c0 ff ff ff ff 	mov    $0xffffffffffffffff,%rax
  40185c:	eb ee                	jmp    40184c <writen+0x4e>

000000000040185e <send_msg>:
  40185e:	41 56                	push   %r14
  401860:	41 55                	push   %r13
  401862:	41 54                	push   %r12
  401864:	55                   	push   %rbp
  401865:	53                   	push   %rbx
  401866:	48 81 ec 60 24 00 00 	sub    $0x2460,%rsp
  40186d:	89 fb                	mov    %edi,%ebx
  40186f:	ba 00 00 00 00       	mov    $0x0,%edx
  401874:	be 01 00 00 00       	mov    $0x1,%esi
  401879:	bf 02 00 00 00       	mov    $0x2,%edi
  40187e:	e8 9d f9 ff ff       	callq  401220 <socket@plt>
  401883:	41 89 c6             	mov    %eax,%r14d
  401886:	85 c0                	test   %eax,%eax
  401888:	0f 88 00 02 00 00    	js     401a8e <send_msg+0x230>
  40188e:	48 c7 84 24 50 24 00 	movq   $0x0,0x2450(%rsp)
  401895:	00 00 00 00 00 
  40189a:	48 c7 84 24 58 24 00 	movq   $0x0,0x2458(%rsp)
  4018a1:	00 00 00 00 00 
  4018a6:	66 c7 84 24 50 24 00 	movw   $0x2,0x2450(%rsp)
  4018ad:	00 02 00 
  4018b0:	66 c7 84 24 52 24 00 	movw   $0x62cc,0x2452(%rsp)
  4018b7:	00 cc 62 
  4018ba:	48 8d 94 24 54 24 00 	lea    0x2454(%rsp),%rdx
  4018c1:	00 
  4018c2:	48 8d 35 53 1a 00 00 	lea    0x1a53(%rip),%rsi        # 40331c <array.0+0x1bc>
  4018c9:	bf 02 00 00 00       	mov    $0x2,%edi
  4018ce:	b8 00 00 00 00       	mov    $0x0,%eax
  4018d3:	e8 78 f8 ff ff       	callq  401150 <inet_pton@plt>
  4018d8:	85 c0                	test   %eax,%eax
  4018da:	0f 88 df 01 00 00    	js     401abf <send_msg+0x261>
  4018e0:	48 8d b4 24 50 24 00 	lea    0x2450(%rsp),%rsi
  4018e7:	00 
  4018e8:	ba 10 00 00 00       	mov    $0x10,%edx
  4018ed:	44 89 f7             	mov    %r14d,%edi
  4018f0:	e8 eb f8 ff ff       	callq  4011e0 <connect@plt>
  4018f5:	85 c0                	test   %eax,%eax
  4018f7:	0f 88 fa 01 00 00    	js     401af7 <send_msg+0x299>
  4018fd:	4c 8d 64 24 50       	lea    0x50(%rsp),%r12
  401902:	48 b8 53 75 62 6a 65 	movabs $0x3a7463656a627553,%rax
  401909:	63 74 3a 
  40190c:	48 ba 20 42 6f 6d 62 	movabs $0x6f6e20626d6f4220,%rdx
  401913:	20 6e 6f 
  401916:	48 89 44 24 50       	mov    %rax,0x50(%rsp)
  40191b:	48 89 54 24 58       	mov    %rdx,0x58(%rsp)
  401920:	48 b8 74 69 66 69 63 	movabs $0x6974616369666974,%rax
  401927:	61 74 69 
  40192a:	48 89 44 24 60       	mov    %rax,0x60(%rsp)
  40192f:	c7 44 24 68 6f 6e 0a 	movl   $0xa6e6f,0x68(%rsp)
  401936:	00 
  401937:	48 8d ac 24 50 04 00 	lea    0x450(%rsp),%rbp
  40193e:	00 
  40193f:	4c 89 e6             	mov    %r12,%rsi
  401942:	48 89 ef             	mov    %rbp,%rdi
  401945:	e8 66 f8 ff ff       	callq  4011b0 <strcat@plt>
  40194a:	66 c7 44 24 50 0a 00 	movw   $0xa,0x50(%rsp)
  401951:	4c 89 e6             	mov    %r12,%rsi
  401954:	48 89 ef             	mov    %rbp,%rdi
  401957:	e8 54 f8 ff ff       	callq  4011b0 <strcat@plt>
  40195c:	bf 00 00 00 00       	mov    $0x0,%edi
  401961:	e8 2a f8 ff ff       	callq  401190 <cuserid@plt>
  401966:	48 89 c6             	mov    %rax,%rsi
  401969:	48 85 c0             	test   %rax,%rax
  40196c:	0f 84 bd 01 00 00    	je     401b2f <send_msg+0x2d1>
  401972:	48 89 e7             	mov    %rsp,%rdi
  401975:	e8 d6 f6 ff ff       	callq  401050 <strcpy@plt>
  40197a:	85 db                	test   %ebx,%ebx
  40197c:	4c 8d 0d a7 19 00 00 	lea    0x19a7(%rip),%r9        # 40332a <array.0+0x1ca>
  401983:	48 8d 05 a8 19 00 00 	lea    0x19a8(%rip),%rax        # 403332 <array.0+0x1d2>
  40198a:	4c 0f 44 c8          	cmove  %rax,%r9
  40198e:	48 8d 5c 24 50       	lea    0x50(%rsp),%rbx
  401993:	48 83 ec 08          	sub    $0x8,%rsp
  401997:	8b 05 53 3c 00 00    	mov    0x3c53(%rip),%eax        # 4055f0 <num_input_strings>
  40199d:	50                   	push   %rax
  40199e:	4c 8d 44 24 10       	lea    0x10(%rsp),%r8
  4019a3:	8b 0d 97 3b 00 00    	mov    0x3b97(%rip),%ecx        # 405540 <bomb_id>
  4019a9:	48 8d 15 90 37 00 00 	lea    0x3790(%rip),%rdx        # 405140 <lab_id>
  4019b0:	48 8d 35 9f 19 00 00 	lea    0x199f(%rip),%rsi        # 403356 <array.0+0x1f6>
  4019b7:	48 89 df             	mov    %rbx,%rdi
  4019ba:	b8 00 00 00 00       	mov    $0x0,%eax
  4019bf:	e8 fc f7 ff ff       	callq  4011c0 <sprintf@plt>
  4019c4:	48 8d bc 24 60 04 00 	lea    0x460(%rsp),%rdi
  4019cb:	00 
  4019cc:	48 89 de             	mov    %rbx,%rsi
  4019cf:	e8 dc f7 ff ff       	callq  4011b0 <strcat@plt>
  4019d4:	48 83 c4 10          	add    $0x10,%rsp
  4019d8:	83 3d 11 3c 00 00 00 	cmpl   $0x0,0x3c11(%rip)        # 4055f0 <num_input_strings>
  4019df:	7e 63                	jle    401a44 <send_msg+0x1e6>
  4019e1:	48 8d 2d 18 3c 00 00 	lea    0x3c18(%rip),%rbp        # 405600 <input_strings>
  4019e8:	bb 00 00 00 00       	mov    $0x0,%ebx
  4019ed:	49 89 e5             	mov    %rsp,%r13
  4019f0:	83 c3 01             	add    $0x1,%ebx
  4019f3:	4c 8d 64 24 50       	lea    0x50(%rsp),%r12
  4019f8:	48 83 ec 08          	sub    $0x8,%rsp
  4019fc:	55                   	push   %rbp
  4019fd:	41 89 d9             	mov    %ebx,%r9d
  401a00:	4d 89 e8             	mov    %r13,%r8
  401a03:	8b 0d 37 3b 00 00    	mov    0x3b37(%rip),%ecx        # 405540 <bomb_id>
  401a09:	48 8d 15 30 37 00 00 	lea    0x3730(%rip),%rdx        # 405140 <lab_id>
  401a10:	48 8d 35 5b 19 00 00 	lea    0x195b(%rip),%rsi        # 403372 <array.0+0x212>
  401a17:	4c 89 e7             	mov    %r12,%rdi
  401a1a:	b8 00 00 00 00       	mov    $0x0,%eax
  401a1f:	e8 9c f7 ff ff       	callq  4011c0 <sprintf@plt>
  401a24:	48 8d bc 24 60 04 00 	lea    0x460(%rsp),%rdi
  401a2b:	00 
  401a2c:	4c 89 e6             	mov    %r12,%rsi
  401a2f:	e8 7c f7 ff ff       	callq  4011b0 <strcat@plt>
  401a34:	48 83 c5 50          	add    $0x50,%rbp
  401a38:	48 83 c4 10          	add    $0x10,%rsp
  401a3c:	3b 1d ae 3b 00 00    	cmp    0x3bae(%rip),%ebx        # 4055f0 <num_input_strings>
  401a42:	7c ac                	jl     4019f0 <send_msg+0x192>
  401a44:	48 8d ac 24 50 04 00 	lea    0x450(%rsp),%rbp
  401a4b:	00 
  401a4c:	48 89 ef             	mov    %rbp,%rdi
  401a4f:	e8 3c f6 ff ff       	callq  401090 <strlen@plt>
  401a54:	48 89 c2             	mov    %rax,%rdx
  401a57:	48 89 ee             	mov    %rbp,%rsi
  401a5a:	44 89 f7             	mov    %r14d,%edi
  401a5d:	e8 9c fd ff ff       	callq  4017fe <writen>
  401a62:	48 89 c3             	mov    %rax,%rbx
  401a65:	48 89 ef             	mov    %rbp,%rdi
  401a68:	e8 23 f6 ff ff       	callq  401090 <strlen@plt>
  401a6d:	48 39 c3             	cmp    %rax,%rbx
  401a70:	0f 82 d1 00 00 00    	jb     401b47 <send_msg+0x2e9>
  401a76:	44 89 f7             	mov    %r14d,%edi
  401a79:	e8 62 f6 ff ff       	callq  4010e0 <close@plt>
  401a7e:	48 81 c4 60 24 00 00 	add    $0x2460,%rsp
  401a85:	5b                   	pop    %rbx
  401a86:	5d                   	pop    %rbp
  401a87:	41 5c                	pop    %r12
  401a89:	41 5d                	pop    %r13
  401a8b:	41 5e                	pop    %r14
  401a8d:	c3                   	retq   
  401a8e:	48 8d 15 a6 18 00 00 	lea    0x18a6(%rip),%rdx        # 40333b <array.0+0x1db>
  401a95:	48 8d 35 81 15 00 00 	lea    0x1581(%rip),%rsi        # 40301d <_IO_stdin_used+0x1d>
  401a9c:	48 8b 3d bd 3a 00 00 	mov    0x3abd(%rip),%rdi        # 405560 <stdout@@GLIBC_2.2.5>
  401aa3:	b8 00 00 00 00       	mov    $0x0,%eax
  401aa8:	e8 93 f6 ff ff       	callq  401140 <fprintf@plt>
  401aad:	44 89 f7             	mov    %r14d,%edi
  401ab0:	e8 2b f6 ff ff       	callq  4010e0 <close@plt>
  401ab5:	bf 01 00 00 00       	mov    $0x1,%edi
  401aba:	e8 11 f7 ff ff       	callq  4011d0 <exit@plt>
  401abf:	48 8d 15 e9 18 00 00 	lea    0x18e9(%rip),%rdx        # 4033af <array.0+0x24f>
  401ac6:	48 8d 35 50 15 00 00 	lea    0x1550(%rip),%rsi        # 40301d <_IO_stdin_used+0x1d>
  401acd:	48 8b 3d 8c 3a 00 00 	mov    0x3a8c(%rip),%rdi        # 405560 <stdout@@GLIBC_2.2.5>
  401ad4:	b8 00 00 00 00       	mov    $0x0,%eax
  401ad9:	e8 62 f6 ff ff       	callq  401140 <fprintf@plt>
  401ade:	45 85 f6             	test   %r14d,%r14d
  401ae1:	75 0a                	jne    401aed <send_msg+0x28f>
  401ae3:	bf 01 00 00 00       	mov    $0x1,%edi
  401ae8:	e8 e3 f6 ff ff       	callq  4011d0 <exit@plt>
  401aed:	44 89 f7             	mov    %r14d,%edi
  401af0:	e8 eb f5 ff ff       	callq  4010e0 <close@plt>
  401af5:	eb ec                	jmp    401ae3 <send_msg+0x285>
  401af7:	48 8d 15 4a 18 00 00 	lea    0x184a(%rip),%rdx        # 403348 <array.0+0x1e8>
  401afe:	48 8d 35 18 15 00 00 	lea    0x1518(%rip),%rsi        # 40301d <_IO_stdin_used+0x1d>
  401b05:	48 8b 3d 54 3a 00 00 	mov    0x3a54(%rip),%rdi        # 405560 <stdout@@GLIBC_2.2.5>
  401b0c:	b8 00 00 00 00       	mov    $0x0,%eax
  401b11:	e8 2a f6 ff ff       	callq  401140 <fprintf@plt>
  401b16:	45 85 f6             	test   %r14d,%r14d
  401b19:	75 0a                	jne    401b25 <send_msg+0x2c7>
  401b1b:	bf 01 00 00 00       	mov    $0x1,%edi
  401b20:	e8 ab f6 ff ff       	callq  4011d0 <exit@plt>
  401b25:	44 89 f7             	mov    %r14d,%edi
  401b28:	e8 b3 f5 ff ff       	callq  4010e0 <close@plt>
  401b2d:	eb ec                	jmp    401b1b <send_msg+0x2bd>
  401b2f:	c7 04 24 6e 6f 62 6f 	movl   $0x6f626f6e,(%rsp)
  401b36:	66 c7 44 24 04 64 79 	movw   $0x7964,0x4(%rsp)
  401b3d:	c6 44 24 06 00       	movb   $0x0,0x6(%rsp)
  401b42:	e9 33 fe ff ff       	jmpq   40197a <send_msg+0x11c>
  401b47:	48 8d 15 40 18 00 00 	lea    0x1840(%rip),%rdx        # 40338e <array.0+0x22e>
  401b4e:	48 8d 35 c8 14 00 00 	lea    0x14c8(%rip),%rsi        # 40301d <_IO_stdin_used+0x1d>
  401b55:	48 8b 3d 04 3a 00 00 	mov    0x3a04(%rip),%rdi        # 405560 <stdout@@GLIBC_2.2.5>
  401b5c:	b8 00 00 00 00       	mov    $0x0,%eax
  401b61:	e8 da f5 ff ff       	callq  401140 <fprintf@plt>
  401b66:	45 85 f6             	test   %r14d,%r14d
  401b69:	75 0a                	jne    401b75 <send_msg+0x317>
  401b6b:	bf 01 00 00 00       	mov    $0x1,%edi
  401b70:	e8 5b f6 ff ff       	callq  4011d0 <exit@plt>
  401b75:	44 89 f7             	mov    %r14d,%edi
  401b78:	e8 63 f5 ff ff       	callq  4010e0 <close@plt>
  401b7d:	eb ec                	jmp    401b6b <send_msg+0x30d>

0000000000401b7f <send_msg_2>:
  401b7f:	41 56                	push   %r14
  401b81:	41 55                	push   %r13
  401b83:	41 54                	push   %r12
  401b85:	55                   	push   %rbp
  401b86:	53                   	push   %rbx
  401b87:	48 83 ec 50          	sub    $0x50,%rsp
  401b8b:	89 fb                	mov    %edi,%ebx
  401b8d:	bf 00 00 00 00       	mov    $0x0,%edi
  401b92:	e8 39 f5 ff ff       	callq  4010d0 <dup@plt>
  401b97:	83 f8 ff             	cmp    $0xffffffff,%eax
  401b9a:	0f 84 91 01 00 00    	je     401d31 <send_msg_2+0x1b2>
  401ba0:	41 89 c6             	mov    %eax,%r14d
  401ba3:	bf 00 00 00 00       	mov    $0x0,%edi
  401ba8:	e8 33 f5 ff ff       	callq  4010e0 <close@plt>
  401bad:	83 f8 ff             	cmp    $0xffffffff,%eax
  401bb0:	0f 84 91 01 00 00    	je     401d47 <send_msg_2+0x1c8>
  401bb6:	e8 55 f5 ff ff       	callq  401110 <tmpfile@plt>
  401bbb:	49 89 c4             	mov    %rax,%r12
  401bbe:	48 85 c0             	test   %rax,%rax
  401bc1:	0f 84 96 01 00 00    	je     401d5d <send_msg_2+0x1de>
  401bc7:	48 89 c1             	mov    %rax,%rcx
  401bca:	ba 1b 00 00 00       	mov    $0x1b,%edx
  401bcf:	be 01 00 00 00       	mov    $0x1,%esi
  401bd4:	48 8d 3d 02 18 00 00 	lea    0x1802(%rip),%rdi        # 4033dd <array.0+0x27d>
  401bdb:	e8 10 f6 ff ff       	callq  4011f0 <fwrite@plt>
  401be0:	4c 89 e6             	mov    %r12,%rsi
  401be3:	bf 0a 00 00 00       	mov    $0xa,%edi
  401be8:	e8 03 f5 ff ff       	callq  4010f0 <fputc@plt>
  401bed:	bf 00 00 00 00       	mov    $0x0,%edi
  401bf2:	e8 99 f5 ff ff       	callq  401190 <cuserid@plt>
  401bf7:	48 89 c6             	mov    %rax,%rsi
  401bfa:	48 85 c0             	test   %rax,%rax
  401bfd:	0f 84 70 01 00 00    	je     401d73 <send_msg_2+0x1f4>
  401c03:	48 89 e7             	mov    %rsp,%rdi
  401c06:	e8 45 f4 ff ff       	callq  401050 <strcpy@plt>
  401c0b:	85 db                	test   %ebx,%ebx
  401c0d:	4c 8d 0d 16 17 00 00 	lea    0x1716(%rip),%r9        # 40332a <array.0+0x1ca>
  401c14:	48 8d 05 17 17 00 00 	lea    0x1717(%rip),%rax        # 403332 <array.0+0x1d2>
  401c1b:	4c 0f 44 c8          	cmove  %rax,%r9
  401c1f:	48 83 ec 08          	sub    $0x8,%rsp
  401c23:	8b 05 c7 39 00 00    	mov    0x39c7(%rip),%eax        # 4055f0 <num_input_strings>
  401c29:	50                   	push   %rax
  401c2a:	4c 8d 44 24 10       	lea    0x10(%rsp),%r8
  401c2f:	8b 0d 0b 39 00 00    	mov    0x390b(%rip),%ecx        # 405540 <bomb_id>
  401c35:	48 8d 15 04 35 00 00 	lea    0x3504(%rip),%rdx        # 405140 <lab_id>
  401c3c:	48 8d 35 13 17 00 00 	lea    0x1713(%rip),%rsi        # 403356 <array.0+0x1f6>
  401c43:	4c 89 e7             	mov    %r12,%rdi
  401c46:	b8 00 00 00 00       	mov    $0x0,%eax
  401c4b:	e8 f0 f4 ff ff       	callq  401140 <fprintf@plt>
  401c50:	48 83 c4 10          	add    $0x10,%rsp
  401c54:	83 3d 95 39 00 00 00 	cmpl   $0x0,0x3995(%rip)        # 4055f0 <num_input_strings>
  401c5b:	7e 4e                	jle    401cab <send_msg_2+0x12c>
  401c5d:	48 8d 2d 9c 39 00 00 	lea    0x399c(%rip),%rbp        # 405600 <input_strings>
  401c64:	bb 00 00 00 00       	mov    $0x0,%ebx
  401c69:	49 89 e5             	mov    %rsp,%r13
  401c6c:	83 c3 01             	add    $0x1,%ebx
  401c6f:	48 83 ec 08          	sub    $0x8,%rsp
  401c73:	55                   	push   %rbp
  401c74:	41 89 d9             	mov    %ebx,%r9d
  401c77:	4d 89 e8             	mov    %r13,%r8
  401c7a:	8b 0d c0 38 00 00    	mov    0x38c0(%rip),%ecx        # 405540 <bomb_id>
  401c80:	48 8d 15 b9 34 00 00 	lea    0x34b9(%rip),%rdx        # 405140 <lab_id>
  401c87:	48 8d 35 e4 16 00 00 	lea    0x16e4(%rip),%rsi        # 403372 <array.0+0x212>
  401c8e:	4c 89 e7             	mov    %r12,%rdi
  401c91:	b8 00 00 00 00       	mov    $0x0,%eax
  401c96:	e8 a5 f4 ff ff       	callq  401140 <fprintf@plt>
  401c9b:	48 83 c5 50          	add    $0x50,%rbp
  401c9f:	48 83 c4 10          	add    $0x10,%rsp
  401ca3:	3b 1d 47 39 00 00    	cmp    0x3947(%rip),%ebx        # 4055f0 <num_input_strings>
  401ca9:	7c c1                	jl     401c6c <send_msg_2+0xed>
  401cab:	4c 89 e7             	mov    %r12,%rdi
  401cae:	e8 0d f4 ff ff       	callq  4010c0 <rewind@plt>
  401cb3:	4c 8d 05 3f 17 00 00 	lea    0x173f(%rip),%r8        # 4033f9 <array.0+0x299>
  401cba:	48 8d 0d 42 17 00 00 	lea    0x1742(%rip),%rcx        # 403403 <array.0+0x2a3>
  401cc1:	48 8d 15 46 17 00 00 	lea    0x1746(%rip),%rdx        # 40340e <array.0+0x2ae>
  401cc8:	48 8d 35 56 17 00 00 	lea    0x1756(%rip),%rsi        # 403425 <array.0+0x2c5>
  401ccf:	48 8d 3d ca 38 00 00 	lea    0x38ca(%rip),%rdi        # 4055a0 <scratch>
  401cd6:	b8 00 00 00 00       	mov    $0x0,%eax
  401cdb:	e8 e0 f4 ff ff       	callq  4011c0 <sprintf@plt>
  401ce0:	48 8d 3d b9 38 00 00 	lea    0x38b9(%rip),%rdi        # 4055a0 <scratch>
  401ce7:	e8 b4 f3 ff ff       	callq  4010a0 <system@plt>
  401cec:	85 c0                	test   %eax,%eax
  401cee:	0f 85 97 00 00 00    	jne    401d8b <send_msg_2+0x20c>
  401cf4:	4c 89 e7             	mov    %r12,%rdi
  401cf7:	e8 84 f3 ff ff       	callq  401080 <fclose@plt>
  401cfc:	85 c0                	test   %eax,%eax
  401cfe:	0f 85 9d 00 00 00    	jne    401da1 <send_msg_2+0x222>
  401d04:	44 89 f7             	mov    %r14d,%edi
  401d07:	e8 c4 f3 ff ff       	callq  4010d0 <dup@plt>
  401d0c:	85 c0                	test   %eax,%eax
  401d0e:	0f 85 a3 00 00 00    	jne    401db7 <send_msg_2+0x238>
  401d14:	44 89 f7             	mov    %r14d,%edi
  401d17:	e8 c4 f3 ff ff       	callq  4010e0 <close@plt>
  401d1c:	85 c0                	test   %eax,%eax
  401d1e:	0f 85 a9 00 00 00    	jne    401dcd <send_msg_2+0x24e>
  401d24:	48 83 c4 50          	add    $0x50,%rsp
  401d28:	5b                   	pop    %rbx
  401d29:	5d                   	pop    %rbp
  401d2a:	41 5c                	pop    %r12
  401d2c:	41 5d                	pop    %r13
  401d2e:	41 5e                	pop    %r14
  401d30:	c3                   	retq   
  401d31:	48 8d 3d 69 16 00 00 	lea    0x1669(%rip),%rdi        # 4033a1 <array.0+0x241>
  401d38:	e8 23 f3 ff ff       	callq  401060 <puts@plt>
  401d3d:	bf 08 00 00 00       	mov    $0x8,%edi
  401d42:	e8 89 f4 ff ff       	callq  4011d0 <exit@plt>
  401d47:	48 8d 3d 67 16 00 00 	lea    0x1667(%rip),%rdi        # 4033b5 <array.0+0x255>
  401d4e:	e8 0d f3 ff ff       	callq  401060 <puts@plt>
  401d53:	bf 08 00 00 00       	mov    $0x8,%edi
  401d58:	e8 73 f4 ff ff       	callq  4011d0 <exit@plt>
  401d5d:	48 8d 3d 64 16 00 00 	lea    0x1664(%rip),%rdi        # 4033c8 <array.0+0x268>
  401d64:	e8 f7 f2 ff ff       	callq  401060 <puts@plt>
  401d69:	bf 08 00 00 00       	mov    $0x8,%edi
  401d6e:	e8 5d f4 ff ff       	callq  4011d0 <exit@plt>
  401d73:	c7 04 24 6e 6f 62 6f 	movl   $0x6f626f6e,(%rsp)
  401d7a:	66 c7 44 24 04 64 79 	movw   $0x7964,0x4(%rsp)
  401d81:	c6 44 24 06 00       	movb   $0x0,0x6(%rsp)
  401d86:	e9 80 fe ff ff       	jmpq   401c0b <send_msg_2+0x8c>
  401d8b:	48 8d 3d 9c 16 00 00 	lea    0x169c(%rip),%rdi        # 40342e <array.0+0x2ce>
  401d92:	e8 c9 f2 ff ff       	callq  401060 <puts@plt>
  401d97:	bf 08 00 00 00       	mov    $0x8,%edi
  401d9c:	e8 2f f4 ff ff       	callq  4011d0 <exit@plt>
  401da1:	48 8d 3d a0 16 00 00 	lea    0x16a0(%rip),%rdi        # 403448 <array.0+0x2e8>
  401da8:	e8 b3 f2 ff ff       	callq  401060 <puts@plt>
  401dad:	bf 08 00 00 00       	mov    $0x8,%edi
  401db2:	e8 19 f4 ff ff       	callq  4011d0 <exit@plt>
  401db7:	48 8d 3d a3 16 00 00 	lea    0x16a3(%rip),%rdi        # 403461 <array.0+0x301>
  401dbe:	e8 9d f2 ff ff       	callq  401060 <puts@plt>
  401dc3:	bf 08 00 00 00       	mov    $0x8,%edi
  401dc8:	e8 03 f4 ff ff       	callq  4011d0 <exit@plt>
  401dcd:	48 8d 3d a8 16 00 00 	lea    0x16a8(%rip),%rdi        # 40347c <array.0+0x31c>
  401dd4:	e8 87 f2 ff ff       	callq  401060 <puts@plt>
  401dd9:	bf 08 00 00 00       	mov    $0x8,%edi
  401dde:	e8 ed f3 ff ff       	callq  4011d0 <exit@plt>

0000000000401de3 <explode_bomb>:
  401de3:	48 83 ec 08          	sub    $0x8,%rsp
  401de7:	48 8d 3d a5 16 00 00 	lea    0x16a5(%rip),%rdi        # 403493 <array.0+0x333>
  401dee:	e8 6d f2 ff ff       	callq  401060 <puts@plt>
  401df3:	48 8d 3d a2 16 00 00 	lea    0x16a2(%rip),%rdi        # 40349c <array.0+0x33c>
  401dfa:	e8 61 f2 ff ff       	callq  401060 <puts@plt>
  401dff:	bf 00 00 00 00       	mov    $0x0,%edi
  401e04:	e8 55 fa ff ff       	callq  40185e <send_msg>
  401e09:	48 8d 3d c8 13 00 00 	lea    0x13c8(%rip),%rdi        # 4031d8 <array.0+0x78>
  401e10:	e8 4b f2 ff ff       	callq  401060 <puts@plt>
  401e15:	bf 08 00 00 00       	mov    $0x8,%edi
  401e1a:	e8 b1 f3 ff ff       	callq  4011d0 <exit@plt>

0000000000401e1f <read_six_numbers>:
  401e1f:	48 83 ec 08          	sub    $0x8,%rsp
  401e23:	48 89 f2             	mov    %rsi,%rdx
  401e26:	48 8d 4e 04          	lea    0x4(%rsi),%rcx
  401e2a:	48 8d 46 14          	lea    0x14(%rsi),%rax
  401e2e:	50                   	push   %rax
  401e2f:	48 8d 46 10          	lea    0x10(%rsi),%rax
  401e33:	50                   	push   %rax
  401e34:	4c 8d 4e 0c          	lea    0xc(%rsi),%r9
  401e38:	4c 8d 46 08          	lea    0x8(%rsi),%r8
  401e3c:	48 8d 35 70 16 00 00 	lea    0x1670(%rip),%rsi        # 4034b3 <array.0+0x353>
  401e43:	b8 00 00 00 00       	mov    $0x0,%eax
  401e48:	e8 23 f3 ff ff       	callq  401170 <__isoc99_sscanf@plt>
  401e4d:	48 83 c4 10          	add    $0x10,%rsp
  401e51:	83 f8 05             	cmp    $0x5,%eax
  401e54:	7e 05                	jle    401e5b <read_six_numbers+0x3c>
  401e56:	48 83 c4 08          	add    $0x8,%rsp
  401e5a:	c3                   	retq   
  401e5b:	e8 83 ff ff ff       	callq  401de3 <explode_bomb>

0000000000401e60 <read_line>:
  401e60:	55                   	push   %rbp
  401e61:	53                   	push   %rbx
  401e62:	48 83 ec 08          	sub    $0x8,%rsp
  401e66:	b8 00 00 00 00       	mov    $0x0,%eax
  401e6b:	e8 40 f9 ff ff       	callq  4017b0 <skip>
  401e70:	48 85 c0             	test   %rax,%rax
  401e73:	74 60                	je     401ed5 <read_line+0x75>
  401e75:	8b 2d 75 37 00 00    	mov    0x3775(%rip),%ebp        # 4055f0 <num_input_strings>
  401e7b:	48 63 c5             	movslq %ebp,%rax
  401e7e:	48 8d 1c 80          	lea    (%rax,%rax,4),%rbx
  401e82:	48 c1 e3 04          	shl    $0x4,%rbx
  401e86:	48 8d 05 73 37 00 00 	lea    0x3773(%rip),%rax        # 405600 <input_strings>
  401e8d:	48 01 c3             	add    %rax,%rbx
  401e90:	48 89 df             	mov    %rbx,%rdi
  401e93:	e8 f8 f1 ff ff       	callq  401090 <strlen@plt>
  401e98:	83 f8 4f             	cmp    $0x4f,%eax
  401e9b:	0f 84 a2 00 00 00    	je     401f43 <read_line+0xe3>
  401ea1:	83 e8 01             	sub    $0x1,%eax
  401ea4:	48 98                	cltq   
  401ea6:	48 63 d5             	movslq %ebp,%rdx
  401ea9:	48 8d 14 92          	lea    (%rdx,%rdx,4),%rdx
  401ead:	48 89 d1             	mov    %rdx,%rcx
  401eb0:	48 c1 e1 04          	shl    $0x4,%rcx
  401eb4:	48 8d 15 45 37 00 00 	lea    0x3745(%rip),%rdx        # 405600 <input_strings>
  401ebb:	48 01 ca             	add    %rcx,%rdx
  401ebe:	c6 04 02 00          	movb   $0x0,(%rdx,%rax,1)
  401ec2:	83 c5 01             	add    $0x1,%ebp
  401ec5:	89 2d 25 37 00 00    	mov    %ebp,0x3725(%rip)        # 4055f0 <num_input_strings>
  401ecb:	48 89 d8             	mov    %rbx,%rax
  401ece:	48 83 c4 08          	add    $0x8,%rsp
  401ed2:	5b                   	pop    %rbx
  401ed3:	5d                   	pop    %rbp
  401ed4:	c3                   	retq   
  401ed5:	48 8b 05 94 36 00 00 	mov    0x3694(%rip),%rax        # 405570 <stdin@@GLIBC_2.2.5>
  401edc:	48 39 05 9d 36 00 00 	cmp    %rax,0x369d(%rip)        # 405580 <infile>
  401ee3:	74 1b                	je     401f00 <read_line+0xa0>
  401ee5:	48 8d 3d f7 15 00 00 	lea    0x15f7(%rip),%rdi        # 4034e3 <array.0+0x383>
  401eec:	e8 3f f1 ff ff       	callq  401030 <getenv@plt>
  401ef1:	48 85 c0             	test   %rax,%rax
  401ef4:	74 1b                	je     401f11 <read_line+0xb1>
  401ef6:	bf 00 00 00 00       	mov    $0x0,%edi
  401efb:	e8 d0 f2 ff ff       	callq  4011d0 <exit@plt>
  401f00:	48 8d 3d be 15 00 00 	lea    0x15be(%rip),%rdi        # 4034c5 <array.0+0x365>
  401f07:	e8 54 f1 ff ff       	callq  401060 <puts@plt>
  401f0c:	e8 d2 fe ff ff       	callq  401de3 <explode_bomb>
  401f11:	48 8b 05 58 36 00 00 	mov    0x3658(%rip),%rax        # 405570 <stdin@@GLIBC_2.2.5>
  401f18:	48 89 05 61 36 00 00 	mov    %rax,0x3661(%rip)        # 405580 <infile>
  401f1f:	b8 00 00 00 00       	mov    $0x0,%eax
  401f24:	e8 87 f8 ff ff       	callq  4017b0 <skip>
  401f29:	48 85 c0             	test   %rax,%rax
  401f2c:	0f 85 43 ff ff ff    	jne    401e75 <read_line+0x15>
  401f32:	48 8d 3d 8c 15 00 00 	lea    0x158c(%rip),%rdi        # 4034c5 <array.0+0x365>
  401f39:	e8 22 f1 ff ff       	callq  401060 <puts@plt>
  401f3e:	e8 a0 fe ff ff       	callq  401de3 <explode_bomb>
  401f43:	48 8d 3d a4 15 00 00 	lea    0x15a4(%rip),%rdi        # 4034ee <array.0+0x38e>
  401f4a:	e8 11 f1 ff ff       	callq  401060 <puts@plt>
  401f4f:	e8 8f fe ff ff       	callq  401de3 <explode_bomb>

0000000000401f54 <phase_defused>:
  401f54:	48 83 ec 78          	sub    $0x78,%rsp
  401f58:	bf 01 00 00 00       	mov    $0x1,%edi
  401f5d:	e8 fc f8 ff ff       	callq  40185e <send_msg>
  401f62:	83 3d 87 36 00 00 03 	cmpl   $0x3,0x3687(%rip)        # 4055f0 <num_input_strings>
  401f69:	74 05                	je     401f70 <phase_defused+0x1c>
  401f6b:	48 83 c4 78          	add    $0x78,%rsp
  401f6f:	c3                   	retq   
  401f70:	48 8d 4c 24 18       	lea    0x18(%rsp),%rcx
  401f75:	48 8d 54 24 1c       	lea    0x1c(%rsp),%rdx
  401f7a:	48 83 ec 08          	sub    $0x8,%rsp
  401f7e:	48 8d 44 24 28       	lea    0x28(%rsp),%rax
  401f83:	50                   	push   %rax
  401f84:	48 8d 44 24 18       	lea    0x18(%rsp),%rax
  401f89:	50                   	push   %rax
  401f8a:	48 8d 44 24 24       	lea    0x24(%rsp),%rax
  401f8f:	50                   	push   %rax
  401f90:	4c 8d 4c 24 30       	lea    0x30(%rsp),%r9
  401f95:	4c 8d 44 24 34       	lea    0x34(%rsp),%r8
  401f9a:	48 8d 35 68 15 00 00 	lea    0x1568(%rip),%rsi        # 403509 <array.0+0x3a9>
  401fa1:	48 8d 3d a8 36 00 00 	lea    0x36a8(%rip),%rdi        # 405650 <input_strings+0x50>
  401fa8:	b8 00 00 00 00       	mov    $0x0,%eax
  401fad:	e8 be f1 ff ff       	callq  401170 <__isoc99_sscanf@plt>
  401fb2:	48 83 c4 20          	add    $0x20,%rsp
  401fb6:	83 f8 07             	cmp    $0x7,%eax
  401fb9:	74 1a                	je     401fd5 <phase_defused+0x81>
  401fbb:	48 8d 3d 9e 12 00 00 	lea    0x129e(%rip),%rdi        # 403260 <array.0+0x100>
  401fc2:	e8 99 f0 ff ff       	callq  401060 <puts@plt>
  401fc7:	48 8d 3d c2 12 00 00 	lea    0x12c2(%rip),%rdi        # 403290 <array.0+0x130>
  401fce:	e8 8d f0 ff ff       	callq  401060 <puts@plt>
  401fd3:	eb 96                	jmp    401f6b <phase_defused+0x17>
  401fd5:	48 8d 7c 24 20       	lea    0x20(%rsp),%rdi
  401fda:	48 8d 35 3d 15 00 00 	lea    0x153d(%rip),%rsi        # 40351e <array.0+0x3be>
  401fe1:	e8 31 f6 ff ff       	callq  401617 <strings_not_equal>
  401fe6:	85 c0                	test   %eax,%eax
  401fe8:	75 d1                	jne    401fbb <phase_defused+0x67>
  401fea:	48 8d 3d 0f 12 00 00 	lea    0x120f(%rip),%rdi        # 403200 <array.0+0xa0>
  401ff1:	e8 6a f0 ff ff       	callq  401060 <puts@plt>
  401ff6:	48 8d 3d 2b 12 00 00 	lea    0x122b(%rip),%rdi        # 403228 <array.0+0xc8>
  401ffd:	e8 5e f0 ff ff       	callq  401060 <puts@plt>
  402002:	b8 00 00 00 00       	mov    $0x0,%eax
  402007:	e8 20 f5 ff ff       	callq  40152c <secret_phase>
  40200c:	eb ad                	jmp    401fbb <phase_defused+0x67>
  40200e:	66 90                	xchg   %ax,%ax

0000000000402010 <__libc_csu_init>:
  402010:	41 57                	push   %r15
  402012:	4c 8d 3d f7 2d 00 00 	lea    0x2df7(%rip),%r15        # 404e10 <__frame_dummy_init_array_entry>
  402019:	41 56                	push   %r14
  40201b:	49 89 d6             	mov    %rdx,%r14
  40201e:	41 55                	push   %r13
  402020:	49 89 f5             	mov    %rsi,%r13
  402023:	41 54                	push   %r12
  402025:	41 89 fc             	mov    %edi,%r12d
  402028:	55                   	push   %rbp
  402029:	48 8d 2d e8 2d 00 00 	lea    0x2de8(%rip),%rbp        # 404e18 <__do_global_dtors_aux_fini_array_entry>
  402030:	53                   	push   %rbx
  402031:	4c 29 fd             	sub    %r15,%rbp
  402034:	48 83 ec 08          	sub    $0x8,%rsp
  402038:	e8 c3 ef ff ff       	callq  401000 <_init>
  40203d:	48 c1 fd 03          	sar    $0x3,%rbp
  402041:	74 1b                	je     40205e <__libc_csu_init+0x4e>
  402043:	31 db                	xor    %ebx,%ebx
  402045:	0f 1f 00             	nopl   (%rax)
  402048:	4c 89 f2             	mov    %r14,%rdx
  40204b:	4c 89 ee             	mov    %r13,%rsi
  40204e:	44 89 e7             	mov    %r12d,%edi
  402051:	41 ff 14 df          	callq  *(%r15,%rbx,8)
  402055:	48 83 c3 01          	add    $0x1,%rbx
  402059:	48 39 dd             	cmp    %rbx,%rbp
  40205c:	75 ea                	jne    402048 <__libc_csu_init+0x38>
  40205e:	48 83 c4 08          	add    $0x8,%rsp
  402062:	5b                   	pop    %rbx
  402063:	5d                   	pop    %rbp
  402064:	41 5c                	pop    %r12
  402066:	41 5d                	pop    %r13
  402068:	41 5e                	pop    %r14
  40206a:	41 5f                	pop    %r15
  40206c:	c3                   	retq   
  40206d:	0f 1f 00             	nopl   (%rax)

0000000000402070 <__libc_csu_fini>:
  402070:	c3                   	retq   

Disassembly of section .fini:

0000000000402074 <_fini>:
  402074:	48 83 ec 08          	sub    $0x8,%rsp
  402078:	48 83 c4 08          	add    $0x8,%rsp
  40207c:	c3                   	retq   
