
./ctarget:     file format elf64-x86-64


Disassembly of section .init:

0000000000401000 <_init>:
  401000:	48 83 ec 08          	sub    $0x8,%rsp
  401004:	48 8b 05 ed 5f 00 00 	mov    0x5fed(%rip),%rax        # 406ff8 <__gmon_start__>
  40100b:	48 85 c0             	test   %rax,%rax
  40100e:	74 02                	je     401012 <_init+0x12>
  401010:	ff d0                	callq  *%rax
  401012:	48 83 c4 08          	add    $0x8,%rsp
  401016:	c3                   	retq   

Disassembly of section .plt:

0000000000401020 <.plt>:
  401020:	ff 35 e2 5f 00 00    	pushq  0x5fe2(%rip)        # 407008 <_GLOBAL_OFFSET_TABLE_+0x8>
  401026:	ff 25 e4 5f 00 00    	jmpq   *0x5fe4(%rip)        # 407010 <_GLOBAL_OFFSET_TABLE_+0x10>
  40102c:	0f 1f 40 00          	nopl   0x0(%rax)

0000000000401030 <strcasecmp@plt>:
  401030:	ff 25 e2 5f 00 00    	jmpq   *0x5fe2(%rip)        # 407018 <strcasecmp@GLIBC_2.2.5>
  401036:	68 00 00 00 00       	pushq  $0x0
  40103b:	e9 e0 ff ff ff       	jmpq   401020 <.plt>

0000000000401040 <__errno_location@plt>:
  401040:	ff 25 da 5f 00 00    	jmpq   *0x5fda(%rip)        # 407020 <__errno_location@GLIBC_2.2.5>
  401046:	68 01 00 00 00       	pushq  $0x1
  40104b:	e9 d0 ff ff ff       	jmpq   401020 <.plt>

0000000000401050 <srandom@plt>:
  401050:	ff 25 d2 5f 00 00    	jmpq   *0x5fd2(%rip)        # 407028 <srandom@GLIBC_2.2.5>
  401056:	68 02 00 00 00       	pushq  $0x2
  40105b:	e9 c0 ff ff ff       	jmpq   401020 <.plt>

0000000000401060 <strncmp@plt>:
  401060:	ff 25 ca 5f 00 00    	jmpq   *0x5fca(%rip)        # 407030 <strncmp@GLIBC_2.2.5>
  401066:	68 03 00 00 00       	pushq  $0x3
  40106b:	e9 b0 ff ff ff       	jmpq   401020 <.plt>

0000000000401070 <strcpy@plt>:
  401070:	ff 25 c2 5f 00 00    	jmpq   *0x5fc2(%rip)        # 407038 <strcpy@GLIBC_2.2.5>
  401076:	68 04 00 00 00       	pushq  $0x4
  40107b:	e9 a0 ff ff ff       	jmpq   401020 <.plt>

0000000000401080 <puts@plt>:
  401080:	ff 25 ba 5f 00 00    	jmpq   *0x5fba(%rip)        # 407040 <puts@GLIBC_2.2.5>
  401086:	68 05 00 00 00       	pushq  $0x5
  40108b:	e9 90 ff ff ff       	jmpq   401020 <.plt>

0000000000401090 <write@plt>:
  401090:	ff 25 b2 5f 00 00    	jmpq   *0x5fb2(%rip)        # 407048 <write@GLIBC_2.2.5>
  401096:	68 06 00 00 00       	pushq  $0x6
  40109b:	e9 80 ff ff ff       	jmpq   401020 <.plt>

00000000004010a0 <strlen@plt>:
  4010a0:	ff 25 aa 5f 00 00    	jmpq   *0x5faa(%rip)        # 407050 <strlen@GLIBC_2.2.5>
  4010a6:	68 07 00 00 00       	pushq  $0x7
  4010ab:	e9 70 ff ff ff       	jmpq   401020 <.plt>

00000000004010b0 <mmap@plt>:
  4010b0:	ff 25 a2 5f 00 00    	jmpq   *0x5fa2(%rip)        # 407058 <mmap@GLIBC_2.2.5>
  4010b6:	68 08 00 00 00       	pushq  $0x8
  4010bb:	e9 60 ff ff ff       	jmpq   401020 <.plt>

00000000004010c0 <printf@plt>:
  4010c0:	ff 25 9a 5f 00 00    	jmpq   *0x5f9a(%rip)        # 407060 <printf@GLIBC_2.2.5>
  4010c6:	68 09 00 00 00       	pushq  $0x9
  4010cb:	e9 50 ff ff ff       	jmpq   401020 <.plt>

00000000004010d0 <memset@plt>:
  4010d0:	ff 25 92 5f 00 00    	jmpq   *0x5f92(%rip)        # 407068 <memset@GLIBC_2.2.5>
  4010d6:	68 0a 00 00 00       	pushq  $0xa
  4010db:	e9 40 ff ff ff       	jmpq   401020 <.plt>

00000000004010e0 <alarm@plt>:
  4010e0:	ff 25 8a 5f 00 00    	jmpq   *0x5f8a(%rip)        # 407070 <alarm@GLIBC_2.2.5>
  4010e6:	68 0b 00 00 00       	pushq  $0xb
  4010eb:	e9 30 ff ff ff       	jmpq   401020 <.plt>

00000000004010f0 <close@plt>:
  4010f0:	ff 25 82 5f 00 00    	jmpq   *0x5f82(%rip)        # 407078 <close@GLIBC_2.2.5>
  4010f6:	68 0c 00 00 00       	pushq  $0xc
  4010fb:	e9 20 ff ff ff       	jmpq   401020 <.plt>

0000000000401100 <read@plt>:
  401100:	ff 25 7a 5f 00 00    	jmpq   *0x5f7a(%rip)        # 407080 <read@GLIBC_2.2.5>
  401106:	68 0d 00 00 00       	pushq  $0xd
  40110b:	e9 10 ff ff ff       	jmpq   401020 <.plt>

0000000000401110 <signal@plt>:
  401110:	ff 25 72 5f 00 00    	jmpq   *0x5f72(%rip)        # 407088 <signal@GLIBC_2.2.5>
  401116:	68 0e 00 00 00       	pushq  $0xe
  40111b:	e9 00 ff ff ff       	jmpq   401020 <.plt>

0000000000401120 <gethostbyname@plt>:
  401120:	ff 25 6a 5f 00 00    	jmpq   *0x5f6a(%rip)        # 407090 <gethostbyname@GLIBC_2.2.5>
  401126:	68 0f 00 00 00       	pushq  $0xf
  40112b:	e9 f0 fe ff ff       	jmpq   401020 <.plt>

0000000000401130 <fprintf@plt>:
  401130:	ff 25 62 5f 00 00    	jmpq   *0x5f62(%rip)        # 407098 <fprintf@GLIBC_2.2.5>
  401136:	68 10 00 00 00       	pushq  $0x10
  40113b:	e9 e0 fe ff ff       	jmpq   401020 <.plt>

0000000000401140 <strtol@plt>:
  401140:	ff 25 5a 5f 00 00    	jmpq   *0x5f5a(%rip)        # 4070a0 <strtol@GLIBC_2.2.5>
  401146:	68 11 00 00 00       	pushq  $0x11
  40114b:	e9 d0 fe ff ff       	jmpq   401020 <.plt>

0000000000401150 <memcpy@plt>:
  401150:	ff 25 52 5f 00 00    	jmpq   *0x5f52(%rip)        # 4070a8 <memcpy@GLIBC_2.14>
  401156:	68 12 00 00 00       	pushq  $0x12
  40115b:	e9 c0 fe ff ff       	jmpq   401020 <.plt>

0000000000401160 <time@plt>:
  401160:	ff 25 4a 5f 00 00    	jmpq   *0x5f4a(%rip)        # 4070b0 <time@GLIBC_2.2.5>
  401166:	68 13 00 00 00       	pushq  $0x13
  40116b:	e9 b0 fe ff ff       	jmpq   401020 <.plt>

0000000000401170 <random@plt>:
  401170:	ff 25 42 5f 00 00    	jmpq   *0x5f42(%rip)        # 4070b8 <random@GLIBC_2.2.5>
  401176:	68 14 00 00 00       	pushq  $0x14
  40117b:	e9 a0 fe ff ff       	jmpq   401020 <.plt>

0000000000401180 <__isoc99_sscanf@plt>:
  401180:	ff 25 3a 5f 00 00    	jmpq   *0x5f3a(%rip)        # 4070c0 <__isoc99_sscanf@GLIBC_2.7>
  401186:	68 15 00 00 00       	pushq  $0x15
  40118b:	e9 90 fe ff ff       	jmpq   401020 <.plt>

0000000000401190 <munmap@plt>:
  401190:	ff 25 32 5f 00 00    	jmpq   *0x5f32(%rip)        # 4070c8 <munmap@GLIBC_2.2.5>
  401196:	68 16 00 00 00       	pushq  $0x16
  40119b:	e9 80 fe ff ff       	jmpq   401020 <.plt>

00000000004011a0 <memmove@plt>:
  4011a0:	ff 25 2a 5f 00 00    	jmpq   *0x5f2a(%rip)        # 4070d0 <memmove@GLIBC_2.2.5>
  4011a6:	68 17 00 00 00       	pushq  $0x17
  4011ab:	e9 70 fe ff ff       	jmpq   401020 <.plt>

00000000004011b0 <fopen@plt>:
  4011b0:	ff 25 22 5f 00 00    	jmpq   *0x5f22(%rip)        # 4070d8 <fopen@GLIBC_2.2.5>
  4011b6:	68 18 00 00 00       	pushq  $0x18
  4011bb:	e9 60 fe ff ff       	jmpq   401020 <.plt>

00000000004011c0 <getopt@plt>:
  4011c0:	ff 25 1a 5f 00 00    	jmpq   *0x5f1a(%rip)        # 4070e0 <getopt@GLIBC_2.2.5>
  4011c6:	68 19 00 00 00       	pushq  $0x19
  4011cb:	e9 50 fe ff ff       	jmpq   401020 <.plt>

00000000004011d0 <strtoul@plt>:
  4011d0:	ff 25 12 5f 00 00    	jmpq   *0x5f12(%rip)        # 4070e8 <strtoul@GLIBC_2.2.5>
  4011d6:	68 1a 00 00 00       	pushq  $0x1a
  4011db:	e9 40 fe ff ff       	jmpq   401020 <.plt>

00000000004011e0 <gethostname@plt>:
  4011e0:	ff 25 0a 5f 00 00    	jmpq   *0x5f0a(%rip)        # 4070f0 <gethostname@GLIBC_2.2.5>
  4011e6:	68 1b 00 00 00       	pushq  $0x1b
  4011eb:	e9 30 fe ff ff       	jmpq   401020 <.plt>

00000000004011f0 <sprintf@plt>:
  4011f0:	ff 25 02 5f 00 00    	jmpq   *0x5f02(%rip)        # 4070f8 <sprintf@GLIBC_2.2.5>
  4011f6:	68 1c 00 00 00       	pushq  $0x1c
  4011fb:	e9 20 fe ff ff       	jmpq   401020 <.plt>

0000000000401200 <exit@plt>:
  401200:	ff 25 fa 5e 00 00    	jmpq   *0x5efa(%rip)        # 407100 <exit@GLIBC_2.2.5>
  401206:	68 1d 00 00 00       	pushq  $0x1d
  40120b:	e9 10 fe ff ff       	jmpq   401020 <.plt>

0000000000401210 <connect@plt>:
  401210:	ff 25 f2 5e 00 00    	jmpq   *0x5ef2(%rip)        # 407108 <connect@GLIBC_2.2.5>
  401216:	68 1e 00 00 00       	pushq  $0x1e
  40121b:	e9 00 fe ff ff       	jmpq   401020 <.plt>

0000000000401220 <getc@plt>:
  401220:	ff 25 ea 5e 00 00    	jmpq   *0x5eea(%rip)        # 407110 <getc@GLIBC_2.2.5>
  401226:	68 1f 00 00 00       	pushq  $0x1f
  40122b:	e9 f0 fd ff ff       	jmpq   401020 <.plt>

0000000000401230 <socket@plt>:
  401230:	ff 25 e2 5e 00 00    	jmpq   *0x5ee2(%rip)        # 407118 <socket@GLIBC_2.2.5>
  401236:	68 20 00 00 00       	pushq  $0x20
  40123b:	e9 e0 fd ff ff       	jmpq   401020 <.plt>

Disassembly of section .text:

0000000000401240 <_start>:
  401240:	31 ed                	xor    %ebp,%ebp
  401242:	49 89 d1             	mov    %rdx,%r9
  401245:	5e                   	pop    %rsi
  401246:	48 89 e2             	mov    %rsp,%rdx
  401249:	48 83 e4 f0          	and    $0xfffffffffffffff0,%rsp
  40124d:	50                   	push   %rax
  40124e:	54                   	push   %rsp
  40124f:	49 c7 c0 90 30 40 00 	mov    $0x403090,%r8
  401256:	48 c7 c1 30 30 40 00 	mov    $0x403030,%rcx
  40125d:	48 c7 c7 df 14 40 00 	mov    $0x4014df,%rdi
  401264:	ff 15 86 5d 00 00    	callq  *0x5d86(%rip)        # 406ff0 <__libc_start_main@GLIBC_2.2.5>
  40126a:	f4                   	hlt    
  40126b:	0f 1f 44 00 00       	nopl   0x0(%rax,%rax,1)

0000000000401270 <_dl_relocate_static_pie>:
  401270:	c3                   	retq   
  401271:	66 2e 0f 1f 84 00 00 	nopw   %cs:0x0(%rax,%rax,1)
  401278:	00 00 00 
  40127b:	0f 1f 44 00 00       	nopl   0x0(%rax,%rax,1)

0000000000401280 <deregister_tm_clones>:
  401280:	b8 98 74 40 00       	mov    $0x407498,%eax
  401285:	48 3d 98 74 40 00    	cmp    $0x407498,%rax
  40128b:	74 13                	je     4012a0 <deregister_tm_clones+0x20>
  40128d:	b8 00 00 00 00       	mov    $0x0,%eax
  401292:	48 85 c0             	test   %rax,%rax
  401295:	74 09                	je     4012a0 <deregister_tm_clones+0x20>
  401297:	bf 98 74 40 00       	mov    $0x407498,%edi
  40129c:	ff e0                	jmpq   *%rax
  40129e:	66 90                	xchg   %ax,%ax
  4012a0:	c3                   	retq   
  4012a1:	66 66 2e 0f 1f 84 00 	data16 nopw %cs:0x0(%rax,%rax,1)
  4012a8:	00 00 00 00 
  4012ac:	0f 1f 40 00          	nopl   0x0(%rax)

00000000004012b0 <register_tm_clones>:
  4012b0:	be 98 74 40 00       	mov    $0x407498,%esi
  4012b5:	48 81 ee 98 74 40 00 	sub    $0x407498,%rsi
  4012bc:	48 89 f0             	mov    %rsi,%rax
  4012bf:	48 c1 ee 3f          	shr    $0x3f,%rsi
  4012c3:	48 c1 f8 03          	sar    $0x3,%rax
  4012c7:	48 01 c6             	add    %rax,%rsi
  4012ca:	48 d1 fe             	sar    %rsi
  4012cd:	74 11                	je     4012e0 <register_tm_clones+0x30>
  4012cf:	b8 00 00 00 00       	mov    $0x0,%eax
  4012d4:	48 85 c0             	test   %rax,%rax
  4012d7:	74 07                	je     4012e0 <register_tm_clones+0x30>
  4012d9:	bf 98 74 40 00       	mov    $0x407498,%edi
  4012de:	ff e0                	jmpq   *%rax
  4012e0:	c3                   	retq   
  4012e1:	66 66 2e 0f 1f 84 00 	data16 nopw %cs:0x0(%rax,%rax,1)
  4012e8:	00 00 00 00 
  4012ec:	0f 1f 40 00          	nopl   0x0(%rax)

00000000004012f0 <__do_global_dtors_aux>:
  4012f0:	80 3d f1 61 00 00 00 	cmpb   $0x0,0x61f1(%rip)        # 4074e8 <completed.0>
  4012f7:	75 17                	jne    401310 <__do_global_dtors_aux+0x20>
  4012f9:	55                   	push   %rbp
  4012fa:	48 89 e5             	mov    %rsp,%rbp
  4012fd:	e8 7e ff ff ff       	callq  401280 <deregister_tm_clones>
  401302:	c6 05 df 61 00 00 01 	movb   $0x1,0x61df(%rip)        # 4074e8 <completed.0>
  401309:	5d                   	pop    %rbp
  40130a:	c3                   	retq   
  40130b:	0f 1f 44 00 00       	nopl   0x0(%rax,%rax,1)
  401310:	c3                   	retq   
  401311:	66 66 2e 0f 1f 84 00 	data16 nopw %cs:0x0(%rax,%rax,1)
  401318:	00 00 00 00 
  40131c:	0f 1f 40 00          	nopl   0x0(%rax)

0000000000401320 <frame_dummy>:
  401320:	eb 8e                	jmp    4012b0 <register_tm_clones>

0000000000401322 <usage>:
  401322:	48 83 ec 08          	sub    $0x8,%rsp
  401326:	48 89 fe             	mov    %rdi,%rsi
  401329:	83 3d 00 62 00 00 00 	cmpl   $0x0,0x6200(%rip)        # 407530 <is_checker>
  401330:	74 4b                	je     40137d <usage+0x5b>
  401332:	48 8d 3d cf 2c 00 00 	lea    0x2ccf(%rip),%rdi        # 404008 <_IO_stdin_used+0x8>
  401339:	b8 00 00 00 00       	mov    $0x0,%eax
  40133e:	e8 7d fd ff ff       	callq  4010c0 <printf@plt>
  401343:	48 8d 3d f6 2c 00 00 	lea    0x2cf6(%rip),%rdi        # 404040 <_IO_stdin_used+0x40>
  40134a:	e8 31 fd ff ff       	callq  401080 <puts@plt>
  40134f:	48 8d 3d 22 2e 00 00 	lea    0x2e22(%rip),%rdi        # 404178 <_IO_stdin_used+0x178>
  401356:	e8 25 fd ff ff       	callq  401080 <puts@plt>
  40135b:	48 8d 3d 06 2d 00 00 	lea    0x2d06(%rip),%rdi        # 404068 <_IO_stdin_used+0x68>
  401362:	e8 19 fd ff ff       	callq  401080 <puts@plt>
  401367:	48 8d 3d 24 2e 00 00 	lea    0x2e24(%rip),%rdi        # 404192 <_IO_stdin_used+0x192>
  40136e:	e8 0d fd ff ff       	callq  401080 <puts@plt>
  401373:	bf 00 00 00 00       	mov    $0x0,%edi
  401378:	e8 83 fe ff ff       	callq  401200 <exit@plt>
  40137d:	48 8d 3d 2a 2e 00 00 	lea    0x2e2a(%rip),%rdi        # 4041ae <_IO_stdin_used+0x1ae>
  401384:	b8 00 00 00 00       	mov    $0x0,%eax
  401389:	e8 32 fd ff ff       	callq  4010c0 <printf@plt>
  40138e:	48 8d 3d fb 2c 00 00 	lea    0x2cfb(%rip),%rdi        # 404090 <_IO_stdin_used+0x90>
  401395:	e8 e6 fc ff ff       	callq  401080 <puts@plt>
  40139a:	48 8d 3d 17 2d 00 00 	lea    0x2d17(%rip),%rdi        # 4040b8 <_IO_stdin_used+0xb8>
  4013a1:	e8 da fc ff ff       	callq  401080 <puts@plt>
  4013a6:	48 8d 3d 1f 2e 00 00 	lea    0x2e1f(%rip),%rdi        # 4041cc <_IO_stdin_used+0x1cc>
  4013ad:	e8 ce fc ff ff       	callq  401080 <puts@plt>
  4013b2:	eb bf                	jmp    401373 <usage+0x51>

00000000004013b4 <initialize_target>:
  4013b4:	55                   	push   %rbp
  4013b5:	53                   	push   %rbx
  4013b6:	48 81 ec 08 21 00 00 	sub    $0x2108,%rsp
  4013bd:	89 f5                	mov    %esi,%ebp
  4013bf:	89 3d 5b 61 00 00    	mov    %edi,0x615b(%rip)        # 407520 <check_level>
  4013c5:	8b 3d 65 5d 00 00    	mov    0x5d65(%rip),%edi        # 407130 <target_id>
  4013cb:	e8 37 1c 00 00       	callq  403007 <gencookie>
  4013d0:	89 c7                	mov    %eax,%edi
  4013d2:	89 05 54 61 00 00    	mov    %eax,0x6154(%rip)        # 40752c <cookie>
  4013d8:	e8 2a 1c 00 00       	callq  403007 <gencookie>
  4013dd:	89 05 45 61 00 00    	mov    %eax,0x6145(%rip)        # 407528 <authkey>
  4013e3:	8b 05 47 5d 00 00    	mov    0x5d47(%rip),%eax        # 407130 <target_id>
  4013e9:	8d 78 01             	lea    0x1(%rax),%edi
  4013ec:	e8 5f fc ff ff       	callq  401050 <srandom@plt>
  4013f1:	e8 7a fd ff ff       	callq  401170 <random@plt>
  4013f6:	48 89 c7             	mov    %rax,%rdi
  4013f9:	e8 b6 02 00 00       	callq  4016b4 <scramble>
  4013fe:	89 c3                	mov    %eax,%ebx
  401400:	85 ed                	test   %ebp,%ebp
  401402:	75 3d                	jne    401441 <initialize_target+0x8d>
  401404:	b8 00 00 00 00       	mov    $0x0,%eax
  401409:	01 d8                	add    %ebx,%eax
  40140b:	0f b7 c0             	movzwl %ax,%eax
  40140e:	8d 04 c5 00 01 00 00 	lea    0x100(,%rax,8),%eax
  401415:	89 c0                	mov    %eax,%eax
  401417:	48 89 05 72 60 00 00 	mov    %rax,0x6072(%rip)        # 407490 <buf_offset>
  40141e:	c6 05 c4 60 00 00 63 	movb   $0x63,0x60c4(%rip)        # 4074e9 <target_prefix>
  401425:	83 3d 5c 60 00 00 00 	cmpl   $0x0,0x605c(%rip)        # 407488 <notify>
  40142c:	74 09                	je     401437 <initialize_target+0x83>
  40142e:	83 3d fb 60 00 00 00 	cmpl   $0x0,0x60fb(%rip)        # 407530 <is_checker>
  401435:	74 23                	je     40145a <initialize_target+0xa6>
  401437:	48 81 c4 08 21 00 00 	add    $0x2108,%rsp
  40143e:	5b                   	pop    %rbx
  40143f:	5d                   	pop    %rbp
  401440:	c3                   	retq   
  401441:	bf 00 00 00 00       	mov    $0x0,%edi
  401446:	e8 15 fd ff ff       	callq  401160 <time@plt>
  40144b:	48 89 c7             	mov    %rax,%rdi
  40144e:	e8 fd fb ff ff       	callq  401050 <srandom@plt>
  401453:	e8 18 fd ff ff       	callq  401170 <random@plt>
  401458:	eb af                	jmp    401409 <initialize_target+0x55>
  40145a:	48 89 e7             	mov    %rsp,%rdi
  40145d:	be 00 01 00 00       	mov    $0x100,%esi
  401462:	e8 79 fd ff ff       	callq  4011e0 <gethostname@plt>
  401467:	89 c3                	mov    %eax,%ebx
  401469:	85 c0                	test   %eax,%eax
  40146b:	75 24                	jne    401491 <initialize_target+0xdd>
  40146d:	48 63 c3             	movslq %ebx,%rax
  401470:	48 8d 15 e9 5c 00 00 	lea    0x5ce9(%rip),%rdx        # 407160 <host_table>
  401477:	48 8b 3c c2          	mov    (%rdx,%rax,8),%rdi
  40147b:	48 85 ff             	test   %rdi,%rdi
  40147e:	74 27                	je     4014a7 <initialize_target+0xf3>
  401480:	48 89 e6             	mov    %rsp,%rsi
  401483:	e8 a8 fb ff ff       	callq  401030 <strcasecmp@plt>
  401488:	85 c0                	test   %eax,%eax
  40148a:	74 1b                	je     4014a7 <initialize_target+0xf3>
  40148c:	83 c3 01             	add    $0x1,%ebx
  40148f:	eb dc                	jmp    40146d <initialize_target+0xb9>
  401491:	48 8d 3d 50 2c 00 00 	lea    0x2c50(%rip),%rdi        # 4040e8 <_IO_stdin_used+0xe8>
  401498:	e8 e3 fb ff ff       	callq  401080 <puts@plt>
  40149d:	bf 08 00 00 00       	mov    $0x8,%edi
  4014a2:	e8 59 fd ff ff       	callq  401200 <exit@plt>
  4014a7:	48 8d bc 24 00 01 00 	lea    0x100(%rsp),%rdi
  4014ae:	00 
  4014af:	e8 bc 18 00 00       	callq  402d70 <init_driver>
  4014b4:	85 c0                	test   %eax,%eax
  4014b6:	0f 89 7b ff ff ff    	jns    401437 <initialize_target+0x83>
  4014bc:	48 8d b4 24 00 01 00 	lea    0x100(%rsp),%rsi
  4014c3:	00 
  4014c4:	48 8d 3d 55 2c 00 00 	lea    0x2c55(%rip),%rdi        # 404120 <_IO_stdin_used+0x120>
  4014cb:	b8 00 00 00 00       	mov    $0x0,%eax
  4014d0:	e8 eb fb ff ff       	callq  4010c0 <printf@plt>
  4014d5:	bf 08 00 00 00       	mov    $0x8,%edi
  4014da:	e8 21 fd ff ff       	callq  401200 <exit@plt>

00000000004014df <main>:
  4014df:	41 56                	push   %r14
  4014e1:	41 55                	push   %r13
  4014e3:	41 54                	push   %r12
  4014e5:	55                   	push   %rbp
  4014e6:	53                   	push   %rbx
  4014e7:	89 fd                	mov    %edi,%ebp
  4014e9:	48 89 f3             	mov    %rsi,%rbx
  4014ec:	48 c7 c6 82 21 40 00 	mov    $0x402182,%rsi
  4014f3:	bf 0b 00 00 00       	mov    $0xb,%edi
  4014f8:	e8 13 fc ff ff       	callq  401110 <signal@plt>
  4014fd:	48 c7 c6 2e 21 40 00 	mov    $0x40212e,%rsi
  401504:	bf 07 00 00 00       	mov    $0x7,%edi
  401509:	e8 02 fc ff ff       	callq  401110 <signal@plt>
  40150e:	48 c7 c6 d6 21 40 00 	mov    $0x4021d6,%rsi
  401515:	bf 04 00 00 00       	mov    $0x4,%edi
  40151a:	e8 f1 fb ff ff       	callq  401110 <signal@plt>
  40151f:	83 3d 0a 60 00 00 00 	cmpl   $0x0,0x600a(%rip)        # 407530 <is_checker>
  401526:	75 26                	jne    40154e <main+0x6f>
  401528:	4c 8d 25 be 2c 00 00 	lea    0x2cbe(%rip),%r12        # 4041ed <_IO_stdin_used+0x1ed>
  40152f:	48 8b 05 6a 5f 00 00 	mov    0x5f6a(%rip),%rax        # 4074a0 <stdin@@GLIBC_2.2.5>
  401536:	48 89 05 db 5f 00 00 	mov    %rax,0x5fdb(%rip)        # 407518 <infile>
  40153d:	41 bd 00 00 00 00    	mov    $0x0,%r13d
  401543:	41 be 00 00 00 00    	mov    $0x0,%r14d
  401549:	e9 88 00 00 00       	jmpq   4015d6 <main+0xf7>
  40154e:	48 c7 c6 2a 22 40 00 	mov    $0x40222a,%rsi
  401555:	bf 0e 00 00 00       	mov    $0xe,%edi
  40155a:	e8 b1 fb ff ff       	callq  401110 <signal@plt>
  40155f:	bf 05 00 00 00       	mov    $0x5,%edi
  401564:	e8 77 fb ff ff       	callq  4010e0 <alarm@plt>
  401569:	4c 8d 25 75 2c 00 00 	lea    0x2c75(%rip),%r12        # 4041e5 <_IO_stdin_used+0x1e5>
  401570:	eb bd                	jmp    40152f <main+0x50>
  401572:	48 8b 3b             	mov    (%rbx),%rdi
  401575:	e8 a8 fd ff ff       	callq  401322 <usage>
  40157a:	48 8d 35 f4 2e 00 00 	lea    0x2ef4(%rip),%rsi        # 404475 <_IO_stdin_used+0x475>
  401581:	48 8b 3d 38 5f 00 00 	mov    0x5f38(%rip),%rdi        # 4074c0 <optarg@@GLIBC_2.2.5>
  401588:	e8 23 fc ff ff       	callq  4011b0 <fopen@plt>
  40158d:	48 89 05 84 5f 00 00 	mov    %rax,0x5f84(%rip)        # 407518 <infile>
  401594:	48 85 c0             	test   %rax,%rax
  401597:	75 3d                	jne    4015d6 <main+0xf7>
  401599:	48 8b 15 20 5f 00 00 	mov    0x5f20(%rip),%rdx        # 4074c0 <optarg@@GLIBC_2.2.5>
  4015a0:	48 8d 35 4b 2c 00 00 	lea    0x2c4b(%rip),%rsi        # 4041f2 <_IO_stdin_used+0x1f2>
  4015a7:	48 8b 3d 32 5f 00 00 	mov    0x5f32(%rip),%rdi        # 4074e0 <stderr@@GLIBC_2.2.5>
  4015ae:	e8 7d fb ff ff       	callq  401130 <fprintf@plt>
  4015b3:	b8 01 00 00 00       	mov    $0x1,%eax
  4015b8:	e9 ce 00 00 00       	jmpq   40168b <main+0x1ac>
  4015bd:	ba 10 00 00 00       	mov    $0x10,%edx
  4015c2:	be 00 00 00 00       	mov    $0x0,%esi
  4015c7:	48 8b 3d f2 5e 00 00 	mov    0x5ef2(%rip),%rdi        # 4074c0 <optarg@@GLIBC_2.2.5>
  4015ce:	e8 fd fb ff ff       	callq  4011d0 <strtoul@plt>
  4015d3:	41 89 c6             	mov    %eax,%r14d
  4015d6:	4c 89 e2             	mov    %r12,%rdx
  4015d9:	48 89 de             	mov    %rbx,%rsi
  4015dc:	89 ef                	mov    %ebp,%edi
  4015de:	e8 dd fb ff ff       	callq  4011c0 <getopt@plt>
  4015e3:	3c ff                	cmp    $0xff,%al
  4015e5:	74 5d                	je     401644 <main+0x165>
  4015e7:	0f be f0             	movsbl %al,%esi
  4015ea:	83 e8 61             	sub    $0x61,%eax
  4015ed:	3c 10                	cmp    $0x10,%al
  4015ef:	77 3a                	ja     40162b <main+0x14c>
  4015f1:	0f b6 c0             	movzbl %al,%eax
  4015f4:	48 8d 15 35 2c 00 00 	lea    0x2c35(%rip),%rdx        # 404230 <_IO_stdin_used+0x230>
  4015fb:	48 63 04 82          	movslq (%rdx,%rax,4),%rax
  4015ff:	48 01 d0             	add    %rdx,%rax
  401602:	ff e0                	jmpq   *%rax
  401604:	ba 0a 00 00 00       	mov    $0xa,%edx
  401609:	be 00 00 00 00       	mov    $0x0,%esi
  40160e:	48 8b 3d ab 5e 00 00 	mov    0x5eab(%rip),%rdi        # 4074c0 <optarg@@GLIBC_2.2.5>
  401615:	e8 26 fb ff ff       	callq  401140 <strtol@plt>
  40161a:	41 89 c5             	mov    %eax,%r13d
  40161d:	eb b7                	jmp    4015d6 <main+0xf7>
  40161f:	c7 05 5f 5e 00 00 00 	movl   $0x0,0x5e5f(%rip)        # 407488 <notify>
  401626:	00 00 00 
  401629:	eb ab                	jmp    4015d6 <main+0xf7>
  40162b:	48 8d 3d dd 2b 00 00 	lea    0x2bdd(%rip),%rdi        # 40420f <_IO_stdin_used+0x20f>
  401632:	b8 00 00 00 00       	mov    $0x0,%eax
  401637:	e8 84 fa ff ff       	callq  4010c0 <printf@plt>
  40163c:	48 8b 3b             	mov    (%rbx),%rdi
  40163f:	e8 de fc ff ff       	callq  401322 <usage>
  401644:	be 00 00 00 00       	mov    $0x0,%esi
  401649:	44 89 ef             	mov    %r13d,%edi
  40164c:	e8 63 fd ff ff       	callq  4013b4 <initialize_target>
  401651:	83 3d d8 5e 00 00 00 	cmpl   $0x0,0x5ed8(%rip)        # 407530 <is_checker>
  401658:	74 09                	je     401663 <main+0x184>
  40165a:	44 39 35 c7 5e 00 00 	cmp    %r14d,0x5ec7(%rip)        # 407528 <authkey>
  401661:	75 31                	jne    401694 <main+0x1b5>
  401663:	8b 35 c3 5e 00 00    	mov    0x5ec3(%rip),%esi        # 40752c <cookie>
  401669:	48 8d 3d b2 2b 00 00 	lea    0x2bb2(%rip),%rdi        # 404222 <_IO_stdin_used+0x222>
  401670:	b8 00 00 00 00       	mov    $0x0,%eax
  401675:	e8 46 fa ff ff       	callq  4010c0 <printf@plt>
  40167a:	48 8b 3d 0f 5e 00 00 	mov    0x5e0f(%rip),%rdi        # 407490 <buf_offset>
  401681:	e8 7f 0c 00 00       	callq  402305 <stable_launch>
  401686:	b8 00 00 00 00       	mov    $0x0,%eax
  40168b:	5b                   	pop    %rbx
  40168c:	5d                   	pop    %rbp
  40168d:	41 5c                	pop    %r12
  40168f:	41 5d                	pop    %r13
  401691:	41 5e                	pop    %r14
  401693:	c3                   	retq   
  401694:	44 89 f6             	mov    %r14d,%esi
  401697:	48 8d 3d aa 2a 00 00 	lea    0x2aaa(%rip),%rdi        # 404148 <_IO_stdin_used+0x148>
  40169e:	b8 00 00 00 00       	mov    $0x0,%eax
  4016a3:	e8 18 fa ff ff       	callq  4010c0 <printf@plt>
  4016a8:	b8 00 00 00 00       	mov    $0x0,%eax
  4016ad:	e8 50 07 00 00       	callq  401e02 <check_fail>
  4016b2:	eb af                	jmp    401663 <main+0x184>

00000000004016b4 <scramble>:
  4016b4:	b8 00 00 00 00       	mov    $0x0,%eax
  4016b9:	eb 11                	jmp    4016cc <scramble+0x18>
  4016bb:	69 d0 fa f8 00 00    	imul   $0xf8fa,%eax,%edx
  4016c1:	01 fa                	add    %edi,%edx
  4016c3:	89 c1                	mov    %eax,%ecx
  4016c5:	89 54 8c d0          	mov    %edx,-0x30(%rsp,%rcx,4)
  4016c9:	83 c0 01             	add    $0x1,%eax
  4016cc:	83 f8 09             	cmp    $0x9,%eax
  4016cf:	76 ea                	jbe    4016bb <scramble+0x7>
  4016d1:	8b 44 24 ec          	mov    -0x14(%rsp),%eax
  4016d5:	69 c0 40 12 00 00    	imul   $0x1240,%eax,%eax
  4016db:	89 44 24 ec          	mov    %eax,-0x14(%rsp)
  4016df:	8b 44 24 d0          	mov    -0x30(%rsp),%eax
  4016e3:	69 c0 d5 46 00 00    	imul   $0x46d5,%eax,%eax
  4016e9:	89 44 24 d0          	mov    %eax,-0x30(%rsp)
  4016ed:	8b 44 24 e8          	mov    -0x18(%rsp),%eax
  4016f1:	69 c0 36 65 00 00    	imul   $0x6536,%eax,%eax
  4016f7:	89 44 24 e8          	mov    %eax,-0x18(%rsp)
  4016fb:	8b 44 24 d8          	mov    -0x28(%rsp),%eax
  4016ff:	69 c0 f7 dc 00 00    	imul   $0xdcf7,%eax,%eax
  401705:	89 44 24 d8          	mov    %eax,-0x28(%rsp)
  401709:	8b 44 24 d4          	mov    -0x2c(%rsp),%eax
  40170d:	69 c0 3a e6 00 00    	imul   $0xe63a,%eax,%eax
  401713:	89 44 24 d4          	mov    %eax,-0x2c(%rsp)
  401717:	8b 44 24 d4          	mov    -0x2c(%rsp),%eax
  40171b:	69 c0 c5 e0 00 00    	imul   $0xe0c5,%eax,%eax
  401721:	89 44 24 d4          	mov    %eax,-0x2c(%rsp)
  401725:	8b 44 24 ec          	mov    -0x14(%rsp),%eax
  401729:	69 c0 ca 6f 00 00    	imul   $0x6fca,%eax,%eax
  40172f:	89 44 24 ec          	mov    %eax,-0x14(%rsp)
  401733:	8b 44 24 d8          	mov    -0x28(%rsp),%eax
  401737:	69 c0 ae 98 00 00    	imul   $0x98ae,%eax,%eax
  40173d:	89 44 24 d8          	mov    %eax,-0x28(%rsp)
  401741:	8b 44 24 e8          	mov    -0x18(%rsp),%eax
  401745:	69 c0 fb c9 00 00    	imul   $0xc9fb,%eax,%eax
  40174b:	89 44 24 e8          	mov    %eax,-0x18(%rsp)
  40174f:	8b 44 24 f4          	mov    -0xc(%rsp),%eax
  401753:	69 c0 4c e6 00 00    	imul   $0xe64c,%eax,%eax
  401759:	89 44 24 f4          	mov    %eax,-0xc(%rsp)
  40175d:	8b 44 24 ec          	mov    -0x14(%rsp),%eax
  401761:	69 c0 58 95 00 00    	imul   $0x9558,%eax,%eax
  401767:	89 44 24 ec          	mov    %eax,-0x14(%rsp)
  40176b:	8b 44 24 f4          	mov    -0xc(%rsp),%eax
  40176f:	69 c0 1f 77 00 00    	imul   $0x771f,%eax,%eax
  401775:	89 44 24 f4          	mov    %eax,-0xc(%rsp)
  401779:	8b 44 24 e8          	mov    -0x18(%rsp),%eax
  40177d:	69 c0 14 d2 00 00    	imul   $0xd214,%eax,%eax
  401783:	89 44 24 e8          	mov    %eax,-0x18(%rsp)
  401787:	8b 44 24 d4          	mov    -0x2c(%rsp),%eax
  40178b:	69 c0 33 92 00 00    	imul   $0x9233,%eax,%eax
  401791:	89 44 24 d4          	mov    %eax,-0x2c(%rsp)
  401795:	8b 44 24 f4          	mov    -0xc(%rsp),%eax
  401799:	69 c0 20 2b 00 00    	imul   $0x2b20,%eax,%eax
  40179f:	89 44 24 f4          	mov    %eax,-0xc(%rsp)
  4017a3:	8b 44 24 d8          	mov    -0x28(%rsp),%eax
  4017a7:	69 c0 24 60 00 00    	imul   $0x6024,%eax,%eax
  4017ad:	89 44 24 d8          	mov    %eax,-0x28(%rsp)
  4017b1:	8b 44 24 ec          	mov    -0x14(%rsp),%eax
  4017b5:	69 c0 c4 9e 00 00    	imul   $0x9ec4,%eax,%eax
  4017bb:	89 44 24 ec          	mov    %eax,-0x14(%rsp)
  4017bf:	8b 44 24 f4          	mov    -0xc(%rsp),%eax
  4017c3:	69 c0 6d c7 00 00    	imul   $0xc76d,%eax,%eax
  4017c9:	89 44 24 f4          	mov    %eax,-0xc(%rsp)
  4017cd:	8b 44 24 e8          	mov    -0x18(%rsp),%eax
  4017d1:	69 c0 cd 51 00 00    	imul   $0x51cd,%eax,%eax
  4017d7:	89 44 24 e8          	mov    %eax,-0x18(%rsp)
  4017db:	8b 44 24 f4          	mov    -0xc(%rsp),%eax
  4017df:	69 c0 6d ed 00 00    	imul   $0xed6d,%eax,%eax
  4017e5:	89 44 24 f4          	mov    %eax,-0xc(%rsp)
  4017e9:	8b 44 24 d8          	mov    -0x28(%rsp),%eax
  4017ed:	69 c0 2f 98 00 00    	imul   $0x982f,%eax,%eax
  4017f3:	89 44 24 d8          	mov    %eax,-0x28(%rsp)
  4017f7:	8b 44 24 d0          	mov    -0x30(%rsp),%eax
  4017fb:	69 c0 81 3c 00 00    	imul   $0x3c81,%eax,%eax
  401801:	89 44 24 d0          	mov    %eax,-0x30(%rsp)
  401805:	8b 44 24 ec          	mov    -0x14(%rsp),%eax
  401809:	69 c0 41 9c 00 00    	imul   $0x9c41,%eax,%eax
  40180f:	89 44 24 ec          	mov    %eax,-0x14(%rsp)
  401813:	8b 44 24 d8          	mov    -0x28(%rsp),%eax
  401817:	69 c0 66 3b 00 00    	imul   $0x3b66,%eax,%eax
  40181d:	89 44 24 d8          	mov    %eax,-0x28(%rsp)
  401821:	8b 44 24 ec          	mov    -0x14(%rsp),%eax
  401825:	69 c0 bd f5 00 00    	imul   $0xf5bd,%eax,%eax
  40182b:	89 44 24 ec          	mov    %eax,-0x14(%rsp)
  40182f:	8b 44 24 dc          	mov    -0x24(%rsp),%eax
  401833:	69 c0 9c 5c 00 00    	imul   $0x5c9c,%eax,%eax
  401839:	89 44 24 dc          	mov    %eax,-0x24(%rsp)
  40183d:	8b 44 24 d4          	mov    -0x2c(%rsp),%eax
  401841:	69 c0 40 ed 00 00    	imul   $0xed40,%eax,%eax
  401847:	89 44 24 d4          	mov    %eax,-0x2c(%rsp)
  40184b:	8b 44 24 e0          	mov    -0x20(%rsp),%eax
  40184f:	69 c0 b0 ed 00 00    	imul   $0xedb0,%eax,%eax
  401855:	89 44 24 e0          	mov    %eax,-0x20(%rsp)
  401859:	8b 44 24 dc          	mov    -0x24(%rsp),%eax
  40185d:	69 c0 fd 39 00 00    	imul   $0x39fd,%eax,%eax
  401863:	89 44 24 dc          	mov    %eax,-0x24(%rsp)
  401867:	8b 44 24 dc          	mov    -0x24(%rsp),%eax
  40186b:	69 c0 7d 26 00 00    	imul   $0x267d,%eax,%eax
  401871:	89 44 24 dc          	mov    %eax,-0x24(%rsp)
  401875:	8b 44 24 ec          	mov    -0x14(%rsp),%eax
  401879:	69 c0 1e 5c 00 00    	imul   $0x5c1e,%eax,%eax
  40187f:	89 44 24 ec          	mov    %eax,-0x14(%rsp)
  401883:	8b 44 24 d0          	mov    -0x30(%rsp),%eax
  401887:	69 c0 7d a2 00 00    	imul   $0xa27d,%eax,%eax
  40188d:	89 44 24 d0          	mov    %eax,-0x30(%rsp)
  401891:	8b 44 24 d8          	mov    -0x28(%rsp),%eax
  401895:	69 c0 9a 2d 00 00    	imul   $0x2d9a,%eax,%eax
  40189b:	89 44 24 d8          	mov    %eax,-0x28(%rsp)
  40189f:	8b 44 24 d4          	mov    -0x2c(%rsp),%eax
  4018a3:	69 c0 dd fe 00 00    	imul   $0xfedd,%eax,%eax
  4018a9:	89 44 24 d4          	mov    %eax,-0x2c(%rsp)
  4018ad:	8b 44 24 e8          	mov    -0x18(%rsp),%eax
  4018b1:	69 c0 4f 0e 00 00    	imul   $0xe4f,%eax,%eax
  4018b7:	89 44 24 e8          	mov    %eax,-0x18(%rsp)
  4018bb:	8b 44 24 d0          	mov    -0x30(%rsp),%eax
  4018bf:	69 c0 6f b7 00 00    	imul   $0xb76f,%eax,%eax
  4018c5:	89 44 24 d0          	mov    %eax,-0x30(%rsp)
  4018c9:	8b 44 24 e0          	mov    -0x20(%rsp),%eax
  4018cd:	69 c0 7c ba 00 00    	imul   $0xba7c,%eax,%eax
  4018d3:	89 44 24 e0          	mov    %eax,-0x20(%rsp)
  4018d7:	8b 44 24 f4          	mov    -0xc(%rsp),%eax
  4018db:	69 c0 78 ae 00 00    	imul   $0xae78,%eax,%eax
  4018e1:	89 44 24 f4          	mov    %eax,-0xc(%rsp)
  4018e5:	8b 44 24 dc          	mov    -0x24(%rsp),%eax
  4018e9:	69 c0 1f c9 00 00    	imul   $0xc91f,%eax,%eax
  4018ef:	89 44 24 dc          	mov    %eax,-0x24(%rsp)
  4018f3:	8b 44 24 f0          	mov    -0x10(%rsp),%eax
  4018f7:	69 c0 fa bc 00 00    	imul   $0xbcfa,%eax,%eax
  4018fd:	89 44 24 f0          	mov    %eax,-0x10(%rsp)
  401901:	8b 44 24 f0          	mov    -0x10(%rsp),%eax
  401905:	69 c0 92 0b 00 00    	imul   $0xb92,%eax,%eax
  40190b:	89 44 24 f0          	mov    %eax,-0x10(%rsp)
  40190f:	8b 44 24 e8          	mov    -0x18(%rsp),%eax
  401913:	69 c0 f1 49 00 00    	imul   $0x49f1,%eax,%eax
  401919:	89 44 24 e8          	mov    %eax,-0x18(%rsp)
  40191d:	8b 44 24 ec          	mov    -0x14(%rsp),%eax
  401921:	69 c0 51 ed 00 00    	imul   $0xed51,%eax,%eax
  401927:	89 44 24 ec          	mov    %eax,-0x14(%rsp)
  40192b:	8b 44 24 d0          	mov    -0x30(%rsp),%eax
  40192f:	69 c0 26 b8 00 00    	imul   $0xb826,%eax,%eax
  401935:	89 44 24 d0          	mov    %eax,-0x30(%rsp)
  401939:	8b 44 24 ec          	mov    -0x14(%rsp),%eax
  40193d:	69 c0 84 b7 00 00    	imul   $0xb784,%eax,%eax
  401943:	89 44 24 ec          	mov    %eax,-0x14(%rsp)
  401947:	8b 44 24 e8          	mov    -0x18(%rsp),%eax
  40194b:	69 c0 6b 8c 00 00    	imul   $0x8c6b,%eax,%eax
  401951:	89 44 24 e8          	mov    %eax,-0x18(%rsp)
  401955:	8b 44 24 d8          	mov    -0x28(%rsp),%eax
  401959:	69 c0 45 65 00 00    	imul   $0x6545,%eax,%eax
  40195f:	89 44 24 d8          	mov    %eax,-0x28(%rsp)
  401963:	8b 44 24 dc          	mov    -0x24(%rsp),%eax
  401967:	69 c0 84 0e 00 00    	imul   $0xe84,%eax,%eax
  40196d:	89 44 24 dc          	mov    %eax,-0x24(%rsp)
  401971:	8b 44 24 d0          	mov    -0x30(%rsp),%eax
  401975:	69 c0 d3 98 00 00    	imul   $0x98d3,%eax,%eax
  40197b:	89 44 24 d0          	mov    %eax,-0x30(%rsp)
  40197f:	8b 44 24 f0          	mov    -0x10(%rsp),%eax
  401983:	69 c0 47 12 00 00    	imul   $0x1247,%eax,%eax
  401989:	89 44 24 f0          	mov    %eax,-0x10(%rsp)
  40198d:	8b 44 24 d0          	mov    -0x30(%rsp),%eax
  401991:	69 c0 ac f9 00 00    	imul   $0xf9ac,%eax,%eax
  401997:	89 44 24 d0          	mov    %eax,-0x30(%rsp)
  40199b:	8b 44 24 ec          	mov    -0x14(%rsp),%eax
  40199f:	69 c0 a0 4d 00 00    	imul   $0x4da0,%eax,%eax
  4019a5:	89 44 24 ec          	mov    %eax,-0x14(%rsp)
  4019a9:	8b 44 24 f4          	mov    -0xc(%rsp),%eax
  4019ad:	69 c0 a6 bd 00 00    	imul   $0xbda6,%eax,%eax
  4019b3:	89 44 24 f4          	mov    %eax,-0xc(%rsp)
  4019b7:	8b 44 24 ec          	mov    -0x14(%rsp),%eax
  4019bb:	69 c0 e6 0a 00 00    	imul   $0xae6,%eax,%eax
  4019c1:	89 44 24 ec          	mov    %eax,-0x14(%rsp)
  4019c5:	8b 44 24 d0          	mov    -0x30(%rsp),%eax
  4019c9:	69 c0 f8 e5 00 00    	imul   $0xe5f8,%eax,%eax
  4019cf:	89 44 24 d0          	mov    %eax,-0x30(%rsp)
  4019d3:	8b 44 24 e8          	mov    -0x18(%rsp),%eax
  4019d7:	69 c0 a1 45 00 00    	imul   $0x45a1,%eax,%eax
  4019dd:	89 44 24 e8          	mov    %eax,-0x18(%rsp)
  4019e1:	8b 44 24 f0          	mov    -0x10(%rsp),%eax
  4019e5:	69 c0 76 e1 00 00    	imul   $0xe176,%eax,%eax
  4019eb:	89 44 24 f0          	mov    %eax,-0x10(%rsp)
  4019ef:	8b 44 24 f4          	mov    -0xc(%rsp),%eax
  4019f3:	69 c0 5c ea 00 00    	imul   $0xea5c,%eax,%eax
  4019f9:	89 44 24 f4          	mov    %eax,-0xc(%rsp)
  4019fd:	8b 44 24 e8          	mov    -0x18(%rsp),%eax
  401a01:	69 c0 33 c7 00 00    	imul   $0xc733,%eax,%eax
  401a07:	89 44 24 e8          	mov    %eax,-0x18(%rsp)
  401a0b:	8b 44 24 f4          	mov    -0xc(%rsp),%eax
  401a0f:	69 c0 15 f6 00 00    	imul   $0xf615,%eax,%eax
  401a15:	89 44 24 f4          	mov    %eax,-0xc(%rsp)
  401a19:	8b 44 24 e8          	mov    -0x18(%rsp),%eax
  401a1d:	69 c0 25 81 00 00    	imul   $0x8125,%eax,%eax
  401a23:	89 44 24 e8          	mov    %eax,-0x18(%rsp)
  401a27:	8b 44 24 d8          	mov    -0x28(%rsp),%eax
  401a2b:	69 c0 59 92 00 00    	imul   $0x9259,%eax,%eax
  401a31:	89 44 24 d8          	mov    %eax,-0x28(%rsp)
  401a35:	8b 44 24 dc          	mov    -0x24(%rsp),%eax
  401a39:	69 c0 69 b1 00 00    	imul   $0xb169,%eax,%eax
  401a3f:	89 44 24 dc          	mov    %eax,-0x24(%rsp)
  401a43:	8b 44 24 f0          	mov    -0x10(%rsp),%eax
  401a47:	69 c0 4a 79 00 00    	imul   $0x794a,%eax,%eax
  401a4d:	89 44 24 f0          	mov    %eax,-0x10(%rsp)
  401a51:	8b 44 24 e4          	mov    -0x1c(%rsp),%eax
  401a55:	69 c0 3f ae 00 00    	imul   $0xae3f,%eax,%eax
  401a5b:	89 44 24 e4          	mov    %eax,-0x1c(%rsp)
  401a5f:	8b 44 24 d8          	mov    -0x28(%rsp),%eax
  401a63:	69 c0 5e f1 00 00    	imul   $0xf15e,%eax,%eax
  401a69:	89 44 24 d8          	mov    %eax,-0x28(%rsp)
  401a6d:	8b 44 24 f0          	mov    -0x10(%rsp),%eax
  401a71:	69 c0 47 55 00 00    	imul   $0x5547,%eax,%eax
  401a77:	89 44 24 f0          	mov    %eax,-0x10(%rsp)
  401a7b:	8b 44 24 d4          	mov    -0x2c(%rsp),%eax
  401a7f:	69 c0 15 5c 00 00    	imul   $0x5c15,%eax,%eax
  401a85:	89 44 24 d4          	mov    %eax,-0x2c(%rsp)
  401a89:	8b 44 24 e4          	mov    -0x1c(%rsp),%eax
  401a8d:	69 c0 17 3b 00 00    	imul   $0x3b17,%eax,%eax
  401a93:	89 44 24 e4          	mov    %eax,-0x1c(%rsp)
  401a97:	8b 44 24 dc          	mov    -0x24(%rsp),%eax
  401a9b:	69 c0 b2 99 00 00    	imul   $0x99b2,%eax,%eax
  401aa1:	89 44 24 dc          	mov    %eax,-0x24(%rsp)
  401aa5:	8b 44 24 e4          	mov    -0x1c(%rsp),%eax
  401aa9:	69 c0 dc 2e 00 00    	imul   $0x2edc,%eax,%eax
  401aaf:	89 44 24 e4          	mov    %eax,-0x1c(%rsp)
  401ab3:	8b 44 24 e8          	mov    -0x18(%rsp),%eax
  401ab7:	69 c0 99 12 00 00    	imul   $0x1299,%eax,%eax
  401abd:	89 44 24 e8          	mov    %eax,-0x18(%rsp)
  401ac1:	8b 44 24 e4          	mov    -0x1c(%rsp),%eax
  401ac5:	69 c0 e5 6e 00 00    	imul   $0x6ee5,%eax,%eax
  401acb:	89 44 24 e4          	mov    %eax,-0x1c(%rsp)
  401acf:	8b 44 24 d8          	mov    -0x28(%rsp),%eax
  401ad3:	69 c0 1a df 00 00    	imul   $0xdf1a,%eax,%eax
  401ad9:	89 44 24 d8          	mov    %eax,-0x28(%rsp)
  401add:	8b 44 24 f4          	mov    -0xc(%rsp),%eax
  401ae1:	69 c0 77 9f 00 00    	imul   $0x9f77,%eax,%eax
  401ae7:	89 44 24 f4          	mov    %eax,-0xc(%rsp)
  401aeb:	8b 44 24 f4          	mov    -0xc(%rsp),%eax
  401aef:	69 c0 cf b4 00 00    	imul   $0xb4cf,%eax,%eax
  401af5:	89 44 24 f4          	mov    %eax,-0xc(%rsp)
  401af9:	8b 44 24 f0          	mov    -0x10(%rsp),%eax
  401afd:	69 c0 b0 57 00 00    	imul   $0x57b0,%eax,%eax
  401b03:	89 44 24 f0          	mov    %eax,-0x10(%rsp)
  401b07:	8b 44 24 f4          	mov    -0xc(%rsp),%eax
  401b0b:	69 c0 07 07 00 00    	imul   $0x707,%eax,%eax
  401b11:	89 44 24 f4          	mov    %eax,-0xc(%rsp)
  401b15:	8b 44 24 d4          	mov    -0x2c(%rsp),%eax
  401b19:	69 c0 05 e8 00 00    	imul   $0xe805,%eax,%eax
  401b1f:	89 44 24 d4          	mov    %eax,-0x2c(%rsp)
  401b23:	8b 44 24 ec          	mov    -0x14(%rsp),%eax
  401b27:	69 c0 55 53 00 00    	imul   $0x5355,%eax,%eax
  401b2d:	89 44 24 ec          	mov    %eax,-0x14(%rsp)
  401b31:	8b 44 24 ec          	mov    -0x14(%rsp),%eax
  401b35:	69 c0 e2 0b 00 00    	imul   $0xbe2,%eax,%eax
  401b3b:	89 44 24 ec          	mov    %eax,-0x14(%rsp)
  401b3f:	8b 44 24 dc          	mov    -0x24(%rsp),%eax
  401b43:	69 c0 31 3e 00 00    	imul   $0x3e31,%eax,%eax
  401b49:	89 44 24 dc          	mov    %eax,-0x24(%rsp)
  401b4d:	8b 44 24 d8          	mov    -0x28(%rsp),%eax
  401b51:	69 c0 b1 83 00 00    	imul   $0x83b1,%eax,%eax
  401b57:	89 44 24 d8          	mov    %eax,-0x28(%rsp)
  401b5b:	8b 44 24 e4          	mov    -0x1c(%rsp),%eax
  401b5f:	69 c0 16 74 00 00    	imul   $0x7416,%eax,%eax
  401b65:	89 44 24 e4          	mov    %eax,-0x1c(%rsp)
  401b69:	8b 44 24 d8          	mov    -0x28(%rsp),%eax
  401b6d:	69 c0 41 01 00 00    	imul   $0x141,%eax,%eax
  401b73:	89 44 24 d8          	mov    %eax,-0x28(%rsp)
  401b77:	8b 44 24 ec          	mov    -0x14(%rsp),%eax
  401b7b:	69 c0 d8 df 00 00    	imul   $0xdfd8,%eax,%eax
  401b81:	89 44 24 ec          	mov    %eax,-0x14(%rsp)
  401b85:	8b 44 24 d8          	mov    -0x28(%rsp),%eax
  401b89:	69 c0 1b ed 00 00    	imul   $0xed1b,%eax,%eax
  401b8f:	89 44 24 d8          	mov    %eax,-0x28(%rsp)
  401b93:	8b 44 24 e0          	mov    -0x20(%rsp),%eax
  401b97:	69 c0 70 40 00 00    	imul   $0x4070,%eax,%eax
  401b9d:	89 44 24 e0          	mov    %eax,-0x20(%rsp)
  401ba1:	8b 44 24 d8          	mov    -0x28(%rsp),%eax
  401ba5:	69 c0 67 ef 00 00    	imul   $0xef67,%eax,%eax
  401bab:	89 44 24 d8          	mov    %eax,-0x28(%rsp)
  401baf:	8b 44 24 dc          	mov    -0x24(%rsp),%eax
  401bb3:	69 c0 18 92 00 00    	imul   $0x9218,%eax,%eax
  401bb9:	89 44 24 dc          	mov    %eax,-0x24(%rsp)
  401bbd:	8b 44 24 f4          	mov    -0xc(%rsp),%eax
  401bc1:	69 c0 b9 f4 00 00    	imul   $0xf4b9,%eax,%eax
  401bc7:	89 44 24 f4          	mov    %eax,-0xc(%rsp)
  401bcb:	b8 00 00 00 00       	mov    $0x0,%eax
  401bd0:	ba 00 00 00 00       	mov    $0x0,%edx
  401bd5:	eb 0b                	jmp    401be2 <scramble+0x52e>
  401bd7:	89 c1                	mov    %eax,%ecx
  401bd9:	8b 4c 8c d0          	mov    -0x30(%rsp,%rcx,4),%ecx
  401bdd:	01 ca                	add    %ecx,%edx
  401bdf:	83 c0 01             	add    $0x1,%eax
  401be2:	83 f8 09             	cmp    $0x9,%eax
  401be5:	76 f0                	jbe    401bd7 <scramble+0x523>
  401be7:	89 d0                	mov    %edx,%eax
  401be9:	c3                   	retq   

0000000000401bea <getbuf>:
  401bea:	48 83 ec 38          	sub    $0x38,%rsp
  401bee:	48 89 e7             	mov    %rsp,%rdi
  401bf1:	e8 3f 02 00 00       	callq  401e35 <Gets>
  401bf6:	b8 01 00 00 00       	mov    $0x1,%eax
  401bfb:	48 83 c4 38          	add    $0x38,%rsp
  401bff:	c3                   	retq   

0000000000401c00 <touch1>:
  401c00:	48 83 ec 08          	sub    $0x8,%rsp
  401c04:	c7 05 16 59 00 00 01 	movl   $0x1,0x5916(%rip)        # 407524 <vlevel>
  401c0b:	00 00 00 
  401c0e:	48 8d 3d b6 26 00 00 	lea    0x26b6(%rip),%rdi        # 4042cb <_IO_stdin_used+0x2cb>
  401c15:	e8 66 f4 ff ff       	callq  401080 <puts@plt>
  401c1a:	bf 01 00 00 00       	mov    $0x1,%edi
  401c1f:	e8 24 04 00 00       	callq  402048 <validate>
  401c24:	bf 00 00 00 00       	mov    $0x0,%edi
  401c29:	e8 d2 f5 ff ff       	callq  401200 <exit@plt>

0000000000401c2e <touch2>:
  401c2e:	48 83 ec 08          	sub    $0x8,%rsp
  401c32:	89 fe                	mov    %edi,%esi
  401c34:	c7 05 e6 58 00 00 02 	movl   $0x2,0x58e6(%rip)        # 407524 <vlevel>
  401c3b:	00 00 00 
  401c3e:	39 3d e8 58 00 00    	cmp    %edi,0x58e8(%rip)        # 40752c <cookie>
  401c44:	74 25                	je     401c6b <touch2+0x3d>
  401c46:	48 8d 3d cb 26 00 00 	lea    0x26cb(%rip),%rdi        # 404318 <_IO_stdin_used+0x318>
  401c4d:	b8 00 00 00 00       	mov    $0x0,%eax
  401c52:	e8 69 f4 ff ff       	callq  4010c0 <printf@plt>
  401c57:	bf 02 00 00 00       	mov    $0x2,%edi
  401c5c:	e8 a5 04 00 00       	callq  402106 <fail>
  401c61:	bf 00 00 00 00       	mov    $0x0,%edi
  401c66:	e8 95 f5 ff ff       	callq  401200 <exit@plt>
  401c6b:	48 8d 3d 7e 26 00 00 	lea    0x267e(%rip),%rdi        # 4042f0 <_IO_stdin_used+0x2f0>
  401c72:	b8 00 00 00 00       	mov    $0x0,%eax
  401c77:	e8 44 f4 ff ff       	callq  4010c0 <printf@plt>
  401c7c:	bf 02 00 00 00       	mov    $0x2,%edi
  401c81:	e8 c2 03 00 00       	callq  402048 <validate>
  401c86:	eb d9                	jmp    401c61 <touch2+0x33>

0000000000401c88 <hexmatch>:
  401c88:	41 54                	push   %r12
  401c8a:	55                   	push   %rbp
  401c8b:	53                   	push   %rbx
  401c8c:	48 83 ec 70          	sub    $0x70,%rsp
  401c90:	89 fd                	mov    %edi,%ebp
  401c92:	48 89 f3             	mov    %rsi,%rbx
  401c95:	e8 d6 f4 ff ff       	callq  401170 <random@plt>
  401c9a:	48 89 c1             	mov    %rax,%rcx
  401c9d:	48 ba 0b d7 a3 70 3d 	movabs $0xa3d70a3d70a3d70b,%rdx
  401ca4:	0a d7 a3 
  401ca7:	48 f7 ea             	imul   %rdx
  401caa:	48 01 ca             	add    %rcx,%rdx
  401cad:	48 c1 fa 06          	sar    $0x6,%rdx
  401cb1:	48 89 c8             	mov    %rcx,%rax
  401cb4:	48 c1 f8 3f          	sar    $0x3f,%rax
  401cb8:	48 29 c2             	sub    %rax,%rdx
  401cbb:	48 8d 04 92          	lea    (%rdx,%rdx,4),%rax
  401cbf:	48 8d 04 80          	lea    (%rax,%rax,4),%rax
  401cc3:	48 c1 e0 02          	shl    $0x2,%rax
  401cc7:	48 29 c1             	sub    %rax,%rcx
  401cca:	4c 8d 24 0c          	lea    (%rsp,%rcx,1),%r12
  401cce:	89 ea                	mov    %ebp,%edx
  401cd0:	48 8d 35 11 26 00 00 	lea    0x2611(%rip),%rsi        # 4042e8 <_IO_stdin_used+0x2e8>
  401cd7:	4c 89 e7             	mov    %r12,%rdi
  401cda:	b8 00 00 00 00       	mov    $0x0,%eax
  401cdf:	e8 0c f5 ff ff       	callq  4011f0 <sprintf@plt>
  401ce4:	ba 09 00 00 00       	mov    $0x9,%edx
  401ce9:	4c 89 e6             	mov    %r12,%rsi
  401cec:	48 89 df             	mov    %rbx,%rdi
  401cef:	e8 6c f3 ff ff       	callq  401060 <strncmp@plt>
  401cf4:	85 c0                	test   %eax,%eax
  401cf6:	0f 94 c0             	sete   %al
  401cf9:	0f b6 c0             	movzbl %al,%eax
  401cfc:	48 83 c4 70          	add    $0x70,%rsp
  401d00:	5b                   	pop    %rbx
  401d01:	5d                   	pop    %rbp
  401d02:	41 5c                	pop    %r12
  401d04:	c3                   	retq   

0000000000401d05 <touch3>:
  401d05:	53                   	push   %rbx
  401d06:	48 89 fb             	mov    %rdi,%rbx
  401d09:	c7 05 11 58 00 00 03 	movl   $0x3,0x5811(%rip)        # 407524 <vlevel>
  401d10:	00 00 00 
  401d13:	48 89 fe             	mov    %rdi,%rsi
  401d16:	8b 3d 10 58 00 00    	mov    0x5810(%rip),%edi        # 40752c <cookie>
  401d1c:	e8 67 ff ff ff       	callq  401c88 <hexmatch>
  401d21:	85 c0                	test   %eax,%eax
  401d23:	74 28                	je     401d4d <touch3+0x48>
  401d25:	48 89 de             	mov    %rbx,%rsi
  401d28:	48 8d 3d 11 26 00 00 	lea    0x2611(%rip),%rdi        # 404340 <_IO_stdin_used+0x340>
  401d2f:	b8 00 00 00 00       	mov    $0x0,%eax
  401d34:	e8 87 f3 ff ff       	callq  4010c0 <printf@plt>
  401d39:	bf 03 00 00 00       	mov    $0x3,%edi
  401d3e:	e8 05 03 00 00       	callq  402048 <validate>
  401d43:	bf 00 00 00 00       	mov    $0x0,%edi
  401d48:	e8 b3 f4 ff ff       	callq  401200 <exit@plt>
  401d4d:	48 89 de             	mov    %rbx,%rsi
  401d50:	48 8d 3d 11 26 00 00 	lea    0x2611(%rip),%rdi        # 404368 <_IO_stdin_used+0x368>
  401d57:	b8 00 00 00 00       	mov    $0x0,%eax
  401d5c:	e8 5f f3 ff ff       	callq  4010c0 <printf@plt>
  401d61:	bf 03 00 00 00       	mov    $0x3,%edi
  401d66:	e8 9b 03 00 00       	callq  402106 <fail>
  401d6b:	eb d6                	jmp    401d43 <touch3+0x3e>

0000000000401d6d <test>:
  401d6d:	48 83 ec 08          	sub    $0x8,%rsp
  401d71:	b8 00 00 00 00       	mov    $0x0,%eax
  401d76:	e8 6f fe ff ff       	callq  401bea <getbuf>
  401d7b:	89 c6                	mov    %eax,%esi
  401d7d:	48 8d 3d 0c 26 00 00 	lea    0x260c(%rip),%rdi        # 404390 <_IO_stdin_used+0x390>
  401d84:	b8 00 00 00 00       	mov    $0x0,%eax
  401d89:	e8 32 f3 ff ff       	callq  4010c0 <printf@plt>
  401d8e:	48 83 c4 08          	add    $0x8,%rsp
  401d92:	c3                   	retq   

0000000000401d93 <save_char>:
  401d93:	8b 05 ab 63 00 00    	mov    0x63ab(%rip),%eax        # 408144 <gets_cnt>
  401d99:	3d ff 03 00 00       	cmp    $0x3ff,%eax
  401d9e:	7f 4a                	jg     401dea <save_char+0x57>
  401da0:	89 f9                	mov    %edi,%ecx
  401da2:	c0 e9 04             	shr    $0x4,%cl
  401da5:	8d 14 40             	lea    (%rax,%rax,2),%edx
  401da8:	4c 8d 05 01 29 00 00 	lea    0x2901(%rip),%r8        # 4046b0 <trans_char>
  401daf:	83 e1 0f             	and    $0xf,%ecx
  401db2:	45 0f b6 0c 08       	movzbl (%r8,%rcx,1),%r9d
  401db7:	48 8d 0d 82 57 00 00 	lea    0x5782(%rip),%rcx        # 407540 <gets_buf>
  401dbe:	48 63 f2             	movslq %edx,%rsi
  401dc1:	44 88 0c 31          	mov    %r9b,(%rcx,%rsi,1)
  401dc5:	8d 72 01             	lea    0x1(%rdx),%esi
  401dc8:	83 e7 0f             	and    $0xf,%edi
  401dcb:	41 0f b6 3c 38       	movzbl (%r8,%rdi,1),%edi
  401dd0:	48 63 f6             	movslq %esi,%rsi
  401dd3:	40 88 3c 31          	mov    %dil,(%rcx,%rsi,1)
  401dd7:	83 c2 02             	add    $0x2,%edx
  401dda:	48 63 d2             	movslq %edx,%rdx
  401ddd:	c6 04 11 20          	movb   $0x20,(%rcx,%rdx,1)
  401de1:	83 c0 01             	add    $0x1,%eax
  401de4:	89 05 5a 63 00 00    	mov    %eax,0x635a(%rip)        # 408144 <gets_cnt>
  401dea:	c3                   	retq   

0000000000401deb <save_term>:
  401deb:	8b 05 53 63 00 00    	mov    0x6353(%rip),%eax        # 408144 <gets_cnt>
  401df1:	8d 04 40             	lea    (%rax,%rax,2),%eax
  401df4:	48 98                	cltq   
  401df6:	48 8d 15 43 57 00 00 	lea    0x5743(%rip),%rdx        # 407540 <gets_buf>
  401dfd:	c6 04 02 00          	movb   $0x0,(%rdx,%rax,1)
  401e01:	c3                   	retq   

0000000000401e02 <check_fail>:
  401e02:	48 83 ec 08          	sub    $0x8,%rsp
  401e06:	0f be 35 dc 56 00 00 	movsbl 0x56dc(%rip),%esi        # 4074e9 <target_prefix>
  401e0d:	48 8d 0d 2c 57 00 00 	lea    0x572c(%rip),%rcx        # 407540 <gets_buf>
  401e14:	8b 15 06 57 00 00    	mov    0x5706(%rip),%edx        # 407520 <check_level>
  401e1a:	48 8d 3d 92 25 00 00 	lea    0x2592(%rip),%rdi        # 4043b3 <_IO_stdin_used+0x3b3>
  401e21:	b8 00 00 00 00       	mov    $0x0,%eax
  401e26:	e8 95 f2 ff ff       	callq  4010c0 <printf@plt>
  401e2b:	bf 01 00 00 00       	mov    $0x1,%edi
  401e30:	e8 cb f3 ff ff       	callq  401200 <exit@plt>

0000000000401e35 <Gets>:
  401e35:	41 54                	push   %r12
  401e37:	55                   	push   %rbp
  401e38:	53                   	push   %rbx
  401e39:	49 89 fc             	mov    %rdi,%r12
  401e3c:	c7 05 fe 62 00 00 00 	movl   $0x0,0x62fe(%rip)        # 408144 <gets_cnt>
  401e43:	00 00 00 
  401e46:	48 89 fb             	mov    %rdi,%rbx
  401e49:	eb 11                	jmp    401e5c <Gets+0x27>
  401e4b:	48 8d 6b 01          	lea    0x1(%rbx),%rbp
  401e4f:	88 03                	mov    %al,(%rbx)
  401e51:	0f b6 f8             	movzbl %al,%edi
  401e54:	e8 3a ff ff ff       	callq  401d93 <save_char>
  401e59:	48 89 eb             	mov    %rbp,%rbx
  401e5c:	48 8b 3d b5 56 00 00 	mov    0x56b5(%rip),%rdi        # 407518 <infile>
  401e63:	e8 b8 f3 ff ff       	callq  401220 <getc@plt>
  401e68:	83 f8 ff             	cmp    $0xffffffff,%eax
  401e6b:	74 05                	je     401e72 <Gets+0x3d>
  401e6d:	83 f8 0a             	cmp    $0xa,%eax
  401e70:	75 d9                	jne    401e4b <Gets+0x16>
  401e72:	c6 03 00             	movb   $0x0,(%rbx)
  401e75:	b8 00 00 00 00       	mov    $0x0,%eax
  401e7a:	e8 6c ff ff ff       	callq  401deb <save_term>
  401e7f:	4c 89 e0             	mov    %r12,%rax
  401e82:	5b                   	pop    %rbx
  401e83:	5d                   	pop    %rbp
  401e84:	41 5c                	pop    %r12
  401e86:	c3                   	retq   

0000000000401e87 <notify_server>:
  401e87:	83 3d a2 56 00 00 00 	cmpl   $0x0,0x56a2(%rip)        # 407530 <is_checker>
  401e8e:	0f 85 b3 01 00 00    	jne    402047 <notify_server+0x1c0>
  401e94:	55                   	push   %rbp
  401e95:	53                   	push   %rbx
  401e96:	48 81 ec 08 40 00 00 	sub    $0x4008,%rsp
  401e9d:	89 fb                	mov    %edi,%ebx
  401e9f:	81 3d 9b 62 00 00 9c 	cmpl   $0x1f9c,0x629b(%rip)        # 408144 <gets_cnt>
  401ea6:	1f 00 00 
  401ea9:	0f 8f b8 00 00 00    	jg     401f67 <notify_server+0xe0>
  401eaf:	44 0f be 0d 32 56 00 	movsbl 0x5632(%rip),%r9d        # 4074e9 <target_prefix>
  401eb6:	00 
  401eb7:	83 3d ca 55 00 00 00 	cmpl   $0x0,0x55ca(%rip)        # 407488 <notify>
  401ebe:	0f 84 be 00 00 00    	je     401f82 <notify_server+0xfb>
  401ec4:	44 8b 05 5d 56 00 00 	mov    0x565d(%rip),%r8d        # 407528 <authkey>
  401ecb:	85 db                	test   %ebx,%ebx
  401ecd:	0f 84 ba 00 00 00    	je     401f8d <notify_server+0x106>
  401ed3:	48 8d 2d f4 24 00 00 	lea    0x24f4(%rip),%rbp        # 4043ce <_IO_stdin_used+0x3ce>
  401eda:	48 8d bc 24 00 20 00 	lea    0x2000(%rsp),%rdi
  401ee1:	00 
  401ee2:	48 8d 05 57 56 00 00 	lea    0x5657(%rip),%rax        # 407540 <gets_buf>
  401ee9:	50                   	push   %rax
  401eea:	56                   	push   %rsi
  401eeb:	48 89 e9             	mov    %rbp,%rcx
  401eee:	8b 15 3c 52 00 00    	mov    0x523c(%rip),%edx        # 407130 <target_id>
  401ef4:	48 8d 35 d8 24 00 00 	lea    0x24d8(%rip),%rsi        # 4043d3 <_IO_stdin_used+0x3d3>
  401efb:	b8 00 00 00 00       	mov    $0x0,%eax
  401f00:	e8 eb f2 ff ff       	callq  4011f0 <sprintf@plt>
  401f05:	48 83 c4 10          	add    $0x10,%rsp
  401f09:	83 3d 78 55 00 00 00 	cmpl   $0x0,0x5578(%rip)        # 407488 <notify>
  401f10:	0f 84 b7 00 00 00    	je     401fcd <notify_server+0x146>
  401f16:	85 db                	test   %ebx,%ebx
  401f18:	0f 84 99 00 00 00    	je     401fb7 <notify_server+0x130>
  401f1e:	48 8d 8c 24 00 20 00 	lea    0x2000(%rsp),%rcx
  401f25:	00 
  401f26:	49 89 e1             	mov    %rsp,%r9
  401f29:	41 b8 00 00 00 00    	mov    $0x0,%r8d
  401f2f:	48 8b 15 12 52 00 00 	mov    0x5212(%rip),%rdx        # 407148 <lab>
  401f36:	48 8b 35 43 55 00 00 	mov    0x5543(%rip),%rsi        # 407480 <course>
  401f3d:	48 8b 3d fc 51 00 00 	mov    0x51fc(%rip),%rdi        # 407140 <user_id>
  401f44:	e8 20 10 00 00       	callq  402f69 <driver_post>
  401f49:	85 c0                	test   %eax,%eax
  401f4b:	78 4c                	js     401f99 <notify_server+0x112>
  401f4d:	48 8d 3d c4 25 00 00 	lea    0x25c4(%rip),%rdi        # 404518 <_IO_stdin_used+0x518>
  401f54:	e8 27 f1 ff ff       	callq  401080 <puts@plt>
  401f59:	48 8d 3d 9b 24 00 00 	lea    0x249b(%rip),%rdi        # 4043fb <_IO_stdin_used+0x3fb>
  401f60:	e8 1b f1 ff ff       	callq  401080 <puts@plt>
  401f65:	eb 5c                	jmp    401fc3 <notify_server+0x13c>
  401f67:	48 8d 3d 7a 25 00 00 	lea    0x257a(%rip),%rdi        # 4044e8 <_IO_stdin_used+0x4e8>
  401f6e:	b8 00 00 00 00       	mov    $0x0,%eax
  401f73:	e8 48 f1 ff ff       	callq  4010c0 <printf@plt>
  401f78:	bf 01 00 00 00       	mov    $0x1,%edi
  401f7d:	e8 7e f2 ff ff       	callq  401200 <exit@plt>
  401f82:	41 b8 ff ff ff ff    	mov    $0xffffffff,%r8d
  401f88:	e9 3e ff ff ff       	jmpq   401ecb <notify_server+0x44>
  401f8d:	48 8d 2d 35 24 00 00 	lea    0x2435(%rip),%rbp        # 4043c9 <_IO_stdin_used+0x3c9>
  401f94:	e9 41 ff ff ff       	jmpq   401eda <notify_server+0x53>
  401f99:	48 89 e6             	mov    %rsp,%rsi
  401f9c:	48 8d 3d 4c 24 00 00 	lea    0x244c(%rip),%rdi        # 4043ef <_IO_stdin_used+0x3ef>
  401fa3:	b8 00 00 00 00       	mov    $0x0,%eax
  401fa8:	e8 13 f1 ff ff       	callq  4010c0 <printf@plt>
  401fad:	bf 01 00 00 00       	mov    $0x1,%edi
  401fb2:	e8 49 f2 ff ff       	callq  401200 <exit@plt>
  401fb7:	48 8d 3d 47 24 00 00 	lea    0x2447(%rip),%rdi        # 404405 <_IO_stdin_used+0x405>
  401fbe:	e8 bd f0 ff ff       	callq  401080 <puts@plt>
  401fc3:	48 81 c4 08 40 00 00 	add    $0x4008,%rsp
  401fca:	5b                   	pop    %rbx
  401fcb:	5d                   	pop    %rbp
  401fcc:	c3                   	retq   
  401fcd:	48 89 ee             	mov    %rbp,%rsi
  401fd0:	48 8d 3d 79 25 00 00 	lea    0x2579(%rip),%rdi        # 404550 <_IO_stdin_used+0x550>
  401fd7:	b8 00 00 00 00       	mov    $0x0,%eax
  401fdc:	e8 df f0 ff ff       	callq  4010c0 <printf@plt>
  401fe1:	48 8b 35 58 51 00 00 	mov    0x5158(%rip),%rsi        # 407140 <user_id>
  401fe8:	48 8d 3d 1d 24 00 00 	lea    0x241d(%rip),%rdi        # 40440c <_IO_stdin_used+0x40c>
  401fef:	b8 00 00 00 00       	mov    $0x0,%eax
  401ff4:	e8 c7 f0 ff ff       	callq  4010c0 <printf@plt>
  401ff9:	48 8b 35 80 54 00 00 	mov    0x5480(%rip),%rsi        # 407480 <course>
  402000:	48 8d 3d 12 24 00 00 	lea    0x2412(%rip),%rdi        # 404419 <_IO_stdin_used+0x419>
  402007:	b8 00 00 00 00       	mov    $0x0,%eax
  40200c:	e8 af f0 ff ff       	callq  4010c0 <printf@plt>
  402011:	48 8b 35 30 51 00 00 	mov    0x5130(%rip),%rsi        # 407148 <lab>
  402018:	48 8d 3d 06 24 00 00 	lea    0x2406(%rip),%rdi        # 404425 <_IO_stdin_used+0x425>
  40201f:	b8 00 00 00 00       	mov    $0x0,%eax
  402024:	e8 97 f0 ff ff       	callq  4010c0 <printf@plt>
  402029:	48 8d b4 24 00 20 00 	lea    0x2000(%rsp),%rsi
  402030:	00 
  402031:	48 8d 3d f6 23 00 00 	lea    0x23f6(%rip),%rdi        # 40442e <_IO_stdin_used+0x42e>
  402038:	b8 00 00 00 00       	mov    $0x0,%eax
  40203d:	e8 7e f0 ff ff       	callq  4010c0 <printf@plt>
  402042:	e9 7c ff ff ff       	jmpq   401fc3 <notify_server+0x13c>
  402047:	c3                   	retq   

0000000000402048 <validate>:
  402048:	53                   	push   %rbx
  402049:	89 fb                	mov    %edi,%ebx
  40204b:	83 3d de 54 00 00 00 	cmpl   $0x0,0x54de(%rip)        # 407530 <is_checker>
  402052:	74 68                	je     4020bc <validate+0x74>
  402054:	39 3d ca 54 00 00    	cmp    %edi,0x54ca(%rip)        # 407524 <vlevel>
  40205a:	75 2d                	jne    402089 <validate+0x41>
  40205c:	8b 35 be 54 00 00    	mov    0x54be(%rip),%esi        # 407520 <check_level>
  402062:	39 fe                	cmp    %edi,%esi
  402064:	75 39                	jne    40209f <validate+0x57>
  402066:	0f be 35 7c 54 00 00 	movsbl 0x547c(%rip),%esi        # 4074e9 <target_prefix>
  40206d:	48 8d 0d cc 54 00 00 	lea    0x54cc(%rip),%rcx        # 407540 <gets_buf>
  402074:	89 fa                	mov    %edi,%edx
  402076:	48 8d 3d db 23 00 00 	lea    0x23db(%rip),%rdi        # 404458 <_IO_stdin_used+0x458>
  40207d:	b8 00 00 00 00       	mov    $0x0,%eax
  402082:	e8 39 f0 ff ff       	callq  4010c0 <printf@plt>
  402087:	5b                   	pop    %rbx
  402088:	c3                   	retq   
  402089:	48 8d 3d aa 23 00 00 	lea    0x23aa(%rip),%rdi        # 40443a <_IO_stdin_used+0x43a>
  402090:	e8 eb ef ff ff       	callq  401080 <puts@plt>
  402095:	b8 00 00 00 00       	mov    $0x0,%eax
  40209a:	e8 63 fd ff ff       	callq  401e02 <check_fail>
  40209f:	89 fa                	mov    %edi,%edx
  4020a1:	48 8d 3d d0 24 00 00 	lea    0x24d0(%rip),%rdi        # 404578 <_IO_stdin_used+0x578>
  4020a8:	b8 00 00 00 00       	mov    $0x0,%eax
  4020ad:	e8 0e f0 ff ff       	callq  4010c0 <printf@plt>
  4020b2:	b8 00 00 00 00       	mov    $0x0,%eax
  4020b7:	e8 46 fd ff ff       	callq  401e02 <check_fail>
  4020bc:	39 3d 62 54 00 00    	cmp    %edi,0x5462(%rip)        # 407524 <vlevel>
  4020c2:	74 1a                	je     4020de <validate+0x96>
  4020c4:	48 8d 3d 6f 23 00 00 	lea    0x236f(%rip),%rdi        # 40443a <_IO_stdin_used+0x43a>
  4020cb:	e8 b0 ef ff ff       	callq  401080 <puts@plt>
  4020d0:	89 de                	mov    %ebx,%esi
  4020d2:	bf 00 00 00 00       	mov    $0x0,%edi
  4020d7:	e8 ab fd ff ff       	callq  401e87 <notify_server>
  4020dc:	eb a9                	jmp    402087 <validate+0x3f>
  4020de:	0f be 15 04 54 00 00 	movsbl 0x5404(%rip),%edx        # 4074e9 <target_prefix>
  4020e5:	89 fe                	mov    %edi,%esi
  4020e7:	48 8d 3d b2 24 00 00 	lea    0x24b2(%rip),%rdi        # 4045a0 <_IO_stdin_used+0x5a0>
  4020ee:	b8 00 00 00 00       	mov    $0x0,%eax
  4020f3:	e8 c8 ef ff ff       	callq  4010c0 <printf@plt>
  4020f8:	89 de                	mov    %ebx,%esi
  4020fa:	bf 01 00 00 00       	mov    $0x1,%edi
  4020ff:	e8 83 fd ff ff       	callq  401e87 <notify_server>
  402104:	eb 81                	jmp    402087 <validate+0x3f>

0000000000402106 <fail>:
  402106:	48 83 ec 08          	sub    $0x8,%rsp
  40210a:	83 3d 1f 54 00 00 00 	cmpl   $0x0,0x541f(%rip)        # 407530 <is_checker>
  402111:	75 11                	jne    402124 <fail+0x1e>
  402113:	89 fe                	mov    %edi,%esi
  402115:	bf 00 00 00 00       	mov    $0x0,%edi
  40211a:	e8 68 fd ff ff       	callq  401e87 <notify_server>
  40211f:	48 83 c4 08          	add    $0x8,%rsp
  402123:	c3                   	retq   
  402124:	b8 00 00 00 00       	mov    $0x0,%eax
  402129:	e8 d4 fc ff ff       	callq  401e02 <check_fail>

000000000040212e <bushandler>:
  40212e:	48 83 ec 08          	sub    $0x8,%rsp
  402132:	83 3d f7 53 00 00 00 	cmpl   $0x0,0x53f7(%rip)        # 407530 <is_checker>
  402139:	74 16                	je     402151 <bushandler+0x23>
  40213b:	48 8d 3d 2b 23 00 00 	lea    0x232b(%rip),%rdi        # 40446d <_IO_stdin_used+0x46d>
  402142:	e8 39 ef ff ff       	callq  401080 <puts@plt>
  402147:	b8 00 00 00 00       	mov    $0x0,%eax
  40214c:	e8 b1 fc ff ff       	callq  401e02 <check_fail>
  402151:	48 8d 3d 80 24 00 00 	lea    0x2480(%rip),%rdi        # 4045d8 <_IO_stdin_used+0x5d8>
  402158:	e8 23 ef ff ff       	callq  401080 <puts@plt>
  40215d:	48 8d 3d 13 23 00 00 	lea    0x2313(%rip),%rdi        # 404477 <_IO_stdin_used+0x477>
  402164:	e8 17 ef ff ff       	callq  401080 <puts@plt>
  402169:	be 00 00 00 00       	mov    $0x0,%esi
  40216e:	bf 00 00 00 00       	mov    $0x0,%edi
  402173:	e8 0f fd ff ff       	callq  401e87 <notify_server>
  402178:	bf 01 00 00 00       	mov    $0x1,%edi
  40217d:	e8 7e f0 ff ff       	callq  401200 <exit@plt>

0000000000402182 <seghandler>:
  402182:	48 83 ec 08          	sub    $0x8,%rsp
  402186:	83 3d a3 53 00 00 00 	cmpl   $0x0,0x53a3(%rip)        # 407530 <is_checker>
  40218d:	74 16                	je     4021a5 <seghandler+0x23>
  40218f:	48 8d 3d f7 22 00 00 	lea    0x22f7(%rip),%rdi        # 40448d <_IO_stdin_used+0x48d>
  402196:	e8 e5 ee ff ff       	callq  401080 <puts@plt>
  40219b:	b8 00 00 00 00       	mov    $0x0,%eax
  4021a0:	e8 5d fc ff ff       	callq  401e02 <check_fail>
  4021a5:	48 8d 3d 4c 24 00 00 	lea    0x244c(%rip),%rdi        # 4045f8 <_IO_stdin_used+0x5f8>
  4021ac:	e8 cf ee ff ff       	callq  401080 <puts@plt>
  4021b1:	48 8d 3d bf 22 00 00 	lea    0x22bf(%rip),%rdi        # 404477 <_IO_stdin_used+0x477>
  4021b8:	e8 c3 ee ff ff       	callq  401080 <puts@plt>
  4021bd:	be 00 00 00 00       	mov    $0x0,%esi
  4021c2:	bf 00 00 00 00       	mov    $0x0,%edi
  4021c7:	e8 bb fc ff ff       	callq  401e87 <notify_server>
  4021cc:	bf 01 00 00 00       	mov    $0x1,%edi
  4021d1:	e8 2a f0 ff ff       	callq  401200 <exit@plt>

00000000004021d6 <illegalhandler>:
  4021d6:	48 83 ec 08          	sub    $0x8,%rsp
  4021da:	83 3d 4f 53 00 00 00 	cmpl   $0x0,0x534f(%rip)        # 407530 <is_checker>
  4021e1:	74 16                	je     4021f9 <illegalhandler+0x23>
  4021e3:	48 8d 3d b6 22 00 00 	lea    0x22b6(%rip),%rdi        # 4044a0 <_IO_stdin_used+0x4a0>
  4021ea:	e8 91 ee ff ff       	callq  401080 <puts@plt>
  4021ef:	b8 00 00 00 00       	mov    $0x0,%eax
  4021f4:	e8 09 fc ff ff       	callq  401e02 <check_fail>
  4021f9:	48 8d 3d 20 24 00 00 	lea    0x2420(%rip),%rdi        # 404620 <_IO_stdin_used+0x620>
  402200:	e8 7b ee ff ff       	callq  401080 <puts@plt>
  402205:	48 8d 3d 6b 22 00 00 	lea    0x226b(%rip),%rdi        # 404477 <_IO_stdin_used+0x477>
  40220c:	e8 6f ee ff ff       	callq  401080 <puts@plt>
  402211:	be 00 00 00 00       	mov    $0x0,%esi
  402216:	bf 00 00 00 00       	mov    $0x0,%edi
  40221b:	e8 67 fc ff ff       	callq  401e87 <notify_server>
  402220:	bf 01 00 00 00       	mov    $0x1,%edi
  402225:	e8 d6 ef ff ff       	callq  401200 <exit@plt>

000000000040222a <sigalrmhandler>:
  40222a:	48 83 ec 08          	sub    $0x8,%rsp
  40222e:	83 3d fb 52 00 00 00 	cmpl   $0x0,0x52fb(%rip)        # 407530 <is_checker>
  402235:	74 16                	je     40224d <sigalrmhandler+0x23>
  402237:	48 8d 3d 76 22 00 00 	lea    0x2276(%rip),%rdi        # 4044b4 <_IO_stdin_used+0x4b4>
  40223e:	e8 3d ee ff ff       	callq  401080 <puts@plt>
  402243:	b8 00 00 00 00       	mov    $0x0,%eax
  402248:	e8 b5 fb ff ff       	callq  401e02 <check_fail>
  40224d:	be 05 00 00 00       	mov    $0x5,%esi
  402252:	48 8d 3d f7 23 00 00 	lea    0x23f7(%rip),%rdi        # 404650 <_IO_stdin_used+0x650>
  402259:	b8 00 00 00 00       	mov    $0x0,%eax
  40225e:	e8 5d ee ff ff       	callq  4010c0 <printf@plt>
  402263:	be 00 00 00 00       	mov    $0x0,%esi
  402268:	bf 00 00 00 00       	mov    $0x0,%edi
  40226d:	e8 15 fc ff ff       	callq  401e87 <notify_server>
  402272:	bf 01 00 00 00       	mov    $0x1,%edi
  402277:	e8 84 ef ff ff       	callq  401200 <exit@plt>

000000000040227c <launch>:
  40227c:	55                   	push   %rbp
  40227d:	48 89 e5             	mov    %rsp,%rbp
  402280:	48 89 fa             	mov    %rdi,%rdx
  402283:	48 8d 47 17          	lea    0x17(%rdi),%rax
  402287:	48 83 e0 f0          	and    $0xfffffffffffffff0,%rax
  40228b:	48 29 c4             	sub    %rax,%rsp
  40228e:	48 8d 7c 24 0f       	lea    0xf(%rsp),%rdi
  402293:	48 83 e7 f0          	and    $0xfffffffffffffff0,%rdi
  402297:	be f4 00 00 00       	mov    $0xf4,%esi
  40229c:	e8 2f ee ff ff       	callq  4010d0 <memset@plt>
  4022a1:	48 8b 05 f8 51 00 00 	mov    0x51f8(%rip),%rax        # 4074a0 <stdin@@GLIBC_2.2.5>
  4022a8:	48 39 05 69 52 00 00 	cmp    %rax,0x5269(%rip)        # 407518 <infile>
  4022af:	74 2b                	je     4022dc <launch+0x60>
  4022b1:	c7 05 69 52 00 00 00 	movl   $0x0,0x5269(%rip)        # 407524 <vlevel>
  4022b8:	00 00 00 
  4022bb:	b8 00 00 00 00       	mov    $0x0,%eax
  4022c0:	e8 a8 fa ff ff       	callq  401d6d <test>
  4022c5:	83 3d 64 52 00 00 00 	cmpl   $0x0,0x5264(%rip)        # 407530 <is_checker>
  4022cc:	75 21                	jne    4022ef <launch+0x73>
  4022ce:	48 8d 3d ff 21 00 00 	lea    0x21ff(%rip),%rdi        # 4044d4 <_IO_stdin_used+0x4d4>
  4022d5:	e8 a6 ed ff ff       	callq  401080 <puts@plt>
  4022da:	c9                   	leaveq 
  4022db:	c3                   	retq   
  4022dc:	48 8d 3d d9 21 00 00 	lea    0x21d9(%rip),%rdi        # 4044bc <_IO_stdin_used+0x4bc>
  4022e3:	b8 00 00 00 00       	mov    $0x0,%eax
  4022e8:	e8 d3 ed ff ff       	callq  4010c0 <printf@plt>
  4022ed:	eb c2                	jmp    4022b1 <launch+0x35>
  4022ef:	48 8d 3d d3 21 00 00 	lea    0x21d3(%rip),%rdi        # 4044c9 <_IO_stdin_used+0x4c9>
  4022f6:	e8 85 ed ff ff       	callq  401080 <puts@plt>
  4022fb:	b8 00 00 00 00       	mov    $0x0,%eax
  402300:	e8 fd fa ff ff       	callq  401e02 <check_fail>

0000000000402305 <stable_launch>:
  402305:	53                   	push   %rbx
  402306:	48 89 3d 03 52 00 00 	mov    %rdi,0x5203(%rip)        # 407510 <global_offset>
  40230d:	41 b9 00 00 00 00    	mov    $0x0,%r9d
  402313:	41 b8 00 00 00 00    	mov    $0x0,%r8d
  402319:	b9 32 01 00 00       	mov    $0x132,%ecx
  40231e:	ba 07 00 00 00       	mov    $0x7,%edx
  402323:	be 00 00 10 00       	mov    $0x100000,%esi
  402328:	bf 00 60 58 55       	mov    $0x55586000,%edi
  40232d:	e8 7e ed ff ff       	callq  4010b0 <mmap@plt>
  402332:	48 89 c3             	mov    %rax,%rbx
  402335:	48 3d 00 60 58 55    	cmp    $0x55586000,%rax
  40233b:	75 43                	jne    402380 <stable_launch+0x7b>
  40233d:	48 8d 90 f8 ff 0f 00 	lea    0xffff8(%rax),%rdx
  402344:	48 89 15 bd 51 00 00 	mov    %rdx,0x51bd(%rip)        # 407508 <stack_top>
  40234b:	48 89 e0             	mov    %rsp,%rax
  40234e:	48 89 d4             	mov    %rdx,%rsp
  402351:	48 89 c2             	mov    %rax,%rdx
  402354:	48 89 15 a5 51 00 00 	mov    %rdx,0x51a5(%rip)        # 407500 <global_save_stack>
  40235b:	48 8b 3d ae 51 00 00 	mov    0x51ae(%rip),%rdi        # 407510 <global_offset>
  402362:	e8 15 ff ff ff       	callq  40227c <launch>
  402367:	48 8b 05 92 51 00 00 	mov    0x5192(%rip),%rax        # 407500 <global_save_stack>
  40236e:	48 89 c4             	mov    %rax,%rsp
  402371:	be 00 00 10 00       	mov    $0x100000,%esi
  402376:	48 89 df             	mov    %rbx,%rdi
  402379:	e8 12 ee ff ff       	callq  401190 <munmap@plt>
  40237e:	5b                   	pop    %rbx
  40237f:	c3                   	retq   
  402380:	be 00 00 10 00       	mov    $0x100000,%esi
  402385:	48 89 c7             	mov    %rax,%rdi
  402388:	e8 03 ee ff ff       	callq  401190 <munmap@plt>
  40238d:	ba 00 60 58 55       	mov    $0x55586000,%edx
  402392:	48 8d 35 ef 22 00 00 	lea    0x22ef(%rip),%rsi        # 404688 <_IO_stdin_used+0x688>
  402399:	48 8b 3d 40 51 00 00 	mov    0x5140(%rip),%rdi        # 4074e0 <stderr@@GLIBC_2.2.5>
  4023a0:	b8 00 00 00 00       	mov    $0x0,%eax
  4023a5:	e8 86 ed ff ff       	callq  401130 <fprintf@plt>
  4023aa:	bf 01 00 00 00       	mov    $0x1,%edi
  4023af:	e8 4c ee ff ff       	callq  401200 <exit@plt>

00000000004023b4 <rio_readinitb>:
  4023b4:	89 37                	mov    %esi,(%rdi)
  4023b6:	c7 47 04 00 00 00 00 	movl   $0x0,0x4(%rdi)
  4023bd:	48 8d 47 10          	lea    0x10(%rdi),%rax
  4023c1:	48 89 47 08          	mov    %rax,0x8(%rdi)
  4023c5:	c3                   	retq   

00000000004023c6 <sigalrm_handler>:
  4023c6:	48 83 ec 08          	sub    $0x8,%rsp
  4023ca:	ba 00 00 00 00       	mov    $0x0,%edx
  4023cf:	48 8d 35 ea 22 00 00 	lea    0x22ea(%rip),%rsi        # 4046c0 <trans_char+0x10>
  4023d6:	48 8b 3d 03 51 00 00 	mov    0x5103(%rip),%rdi        # 4074e0 <stderr@@GLIBC_2.2.5>
  4023dd:	b8 00 00 00 00       	mov    $0x0,%eax
  4023e2:	e8 49 ed ff ff       	callq  401130 <fprintf@plt>
  4023e7:	bf 01 00 00 00       	mov    $0x1,%edi
  4023ec:	e8 0f ee ff ff       	callq  401200 <exit@plt>

00000000004023f1 <urlencode>:
  4023f1:	41 54                	push   %r12
  4023f3:	55                   	push   %rbp
  4023f4:	53                   	push   %rbx
  4023f5:	48 83 ec 10          	sub    $0x10,%rsp
  4023f9:	48 89 fb             	mov    %rdi,%rbx
  4023fc:	48 89 f5             	mov    %rsi,%rbp
  4023ff:	e8 9c ec ff ff       	callq  4010a0 <strlen@plt>
  402404:	eb 0e                	jmp    402414 <urlencode+0x23>
  402406:	88 55 00             	mov    %dl,0x0(%rbp)
  402409:	48 8d 6d 01          	lea    0x1(%rbp),%rbp
  40240d:	48 83 c3 01          	add    $0x1,%rbx
  402411:	44 89 e0             	mov    %r12d,%eax
  402414:	44 8d 60 ff          	lea    -0x1(%rax),%r12d
  402418:	85 c0                	test   %eax,%eax
  40241a:	0f 84 95 00 00 00    	je     4024b5 <urlencode+0xc4>
  402420:	0f b6 13             	movzbl (%rbx),%edx
  402423:	80 fa 2a             	cmp    $0x2a,%dl
  402426:	0f 94 c1             	sete   %cl
  402429:	80 fa 2d             	cmp    $0x2d,%dl
  40242c:	0f 94 c0             	sete   %al
  40242f:	08 c1                	or     %al,%cl
  402431:	75 d3                	jne    402406 <urlencode+0x15>
  402433:	80 fa 2e             	cmp    $0x2e,%dl
  402436:	74 ce                	je     402406 <urlencode+0x15>
  402438:	80 fa 5f             	cmp    $0x5f,%dl
  40243b:	74 c9                	je     402406 <urlencode+0x15>
  40243d:	8d 42 d0             	lea    -0x30(%rdx),%eax
  402440:	3c 09                	cmp    $0x9,%al
  402442:	76 c2                	jbe    402406 <urlencode+0x15>
  402444:	8d 42 bf             	lea    -0x41(%rdx),%eax
  402447:	3c 19                	cmp    $0x19,%al
  402449:	76 bb                	jbe    402406 <urlencode+0x15>
  40244b:	8d 42 9f             	lea    -0x61(%rdx),%eax
  40244e:	3c 19                	cmp    $0x19,%al
  402450:	76 b4                	jbe    402406 <urlencode+0x15>
  402452:	80 fa 20             	cmp    $0x20,%dl
  402455:	74 4c                	je     4024a3 <urlencode+0xb2>
  402457:	8d 42 e0             	lea    -0x20(%rdx),%eax
  40245a:	3c 5f                	cmp    $0x5f,%al
  40245c:	0f 96 c1             	setbe  %cl
  40245f:	80 fa 09             	cmp    $0x9,%dl
  402462:	0f 94 c0             	sete   %al
  402465:	08 c1                	or     %al,%cl
  402467:	74 47                	je     4024b0 <urlencode+0xbf>
  402469:	0f b6 d2             	movzbl %dl,%edx
  40246c:	48 8d 7c 24 08       	lea    0x8(%rsp),%rdi
  402471:	48 8d 35 dd 22 00 00 	lea    0x22dd(%rip),%rsi        # 404755 <trans_char+0xa5>
  402478:	b8 00 00 00 00       	mov    $0x0,%eax
  40247d:	e8 6e ed ff ff       	callq  4011f0 <sprintf@plt>
  402482:	0f b6 44 24 08       	movzbl 0x8(%rsp),%eax
  402487:	88 45 00             	mov    %al,0x0(%rbp)
  40248a:	0f b6 44 24 09       	movzbl 0x9(%rsp),%eax
  40248f:	88 45 01             	mov    %al,0x1(%rbp)
  402492:	0f b6 44 24 0a       	movzbl 0xa(%rsp),%eax
  402497:	88 45 02             	mov    %al,0x2(%rbp)
  40249a:	48 8d 6d 03          	lea    0x3(%rbp),%rbp
  40249e:	e9 6a ff ff ff       	jmpq   40240d <urlencode+0x1c>
  4024a3:	c6 45 00 2b          	movb   $0x2b,0x0(%rbp)
  4024a7:	48 8d 6d 01          	lea    0x1(%rbp),%rbp
  4024ab:	e9 5d ff ff ff       	jmpq   40240d <urlencode+0x1c>
  4024b0:	b8 ff ff ff ff       	mov    $0xffffffff,%eax
  4024b5:	48 83 c4 10          	add    $0x10,%rsp
  4024b9:	5b                   	pop    %rbx
  4024ba:	5d                   	pop    %rbp
  4024bb:	41 5c                	pop    %r12
  4024bd:	c3                   	retq   

00000000004024be <rio_writen>:
  4024be:	41 55                	push   %r13
  4024c0:	41 54                	push   %r12
  4024c2:	55                   	push   %rbp
  4024c3:	53                   	push   %rbx
  4024c4:	48 83 ec 08          	sub    $0x8,%rsp
  4024c8:	41 89 fc             	mov    %edi,%r12d
  4024cb:	48 89 f5             	mov    %rsi,%rbp
  4024ce:	49 89 d5             	mov    %rdx,%r13
  4024d1:	48 89 d3             	mov    %rdx,%rbx
  4024d4:	eb 06                	jmp    4024dc <rio_writen+0x1e>
  4024d6:	48 29 c3             	sub    %rax,%rbx
  4024d9:	48 01 c5             	add    %rax,%rbp
  4024dc:	48 85 db             	test   %rbx,%rbx
  4024df:	74 24                	je     402505 <rio_writen+0x47>
  4024e1:	48 89 da             	mov    %rbx,%rdx
  4024e4:	48 89 ee             	mov    %rbp,%rsi
  4024e7:	44 89 e7             	mov    %r12d,%edi
  4024ea:	e8 a1 eb ff ff       	callq  401090 <write@plt>
  4024ef:	48 85 c0             	test   %rax,%rax
  4024f2:	7f e2                	jg     4024d6 <rio_writen+0x18>
  4024f4:	e8 47 eb ff ff       	callq  401040 <__errno_location@plt>
  4024f9:	83 38 04             	cmpl   $0x4,(%rax)
  4024fc:	75 15                	jne    402513 <rio_writen+0x55>
  4024fe:	b8 00 00 00 00       	mov    $0x0,%eax
  402503:	eb d1                	jmp    4024d6 <rio_writen+0x18>
  402505:	4c 89 e8             	mov    %r13,%rax
  402508:	48 83 c4 08          	add    $0x8,%rsp
  40250c:	5b                   	pop    %rbx
  40250d:	5d                   	pop    %rbp
  40250e:	41 5c                	pop    %r12
  402510:	41 5d                	pop    %r13
  402512:	c3                   	retq   
  402513:	48 c7 c0 ff ff ff ff 	mov    $0xffffffffffffffff,%rax
  40251a:	eb ec                	jmp    402508 <rio_writen+0x4a>

000000000040251c <rio_read>:
  40251c:	41 55                	push   %r13
  40251e:	41 54                	push   %r12
  402520:	55                   	push   %rbp
  402521:	53                   	push   %rbx
  402522:	48 83 ec 08          	sub    $0x8,%rsp
  402526:	48 89 fb             	mov    %rdi,%rbx
  402529:	49 89 f5             	mov    %rsi,%r13
  40252c:	49 89 d4             	mov    %rdx,%r12
  40252f:	eb 0a                	jmp    40253b <rio_read+0x1f>
  402531:	e8 0a eb ff ff       	callq  401040 <__errno_location@plt>
  402536:	83 38 04             	cmpl   $0x4,(%rax)
  402539:	75 5a                	jne    402595 <rio_read+0x79>
  40253b:	8b 6b 04             	mov    0x4(%rbx),%ebp
  40253e:	85 ed                	test   %ebp,%ebp
  402540:	7f 22                	jg     402564 <rio_read+0x48>
  402542:	48 8d 6b 10          	lea    0x10(%rbx),%rbp
  402546:	ba 00 20 00 00       	mov    $0x2000,%edx
  40254b:	48 89 ee             	mov    %rbp,%rsi
  40254e:	8b 3b                	mov    (%rbx),%edi
  402550:	e8 ab eb ff ff       	callq  401100 <read@plt>
  402555:	89 43 04             	mov    %eax,0x4(%rbx)
  402558:	85 c0                	test   %eax,%eax
  40255a:	78 d5                	js     402531 <rio_read+0x15>
  40255c:	74 40                	je     40259e <rio_read+0x82>
  40255e:	48 89 6b 08          	mov    %rbp,0x8(%rbx)
  402562:	eb d7                	jmp    40253b <rio_read+0x1f>
  402564:	89 e8                	mov    %ebp,%eax
  402566:	4c 39 e0             	cmp    %r12,%rax
  402569:	72 03                	jb     40256e <rio_read+0x52>
  40256b:	44 89 e5             	mov    %r12d,%ebp
  40256e:	4c 63 e5             	movslq %ebp,%r12
  402571:	48 8b 73 08          	mov    0x8(%rbx),%rsi
  402575:	4c 89 e2             	mov    %r12,%rdx
  402578:	4c 89 ef             	mov    %r13,%rdi
  40257b:	e8 d0 eb ff ff       	callq  401150 <memcpy@plt>
  402580:	4c 01 63 08          	add    %r12,0x8(%rbx)
  402584:	29 6b 04             	sub    %ebp,0x4(%rbx)
  402587:	4c 89 e0             	mov    %r12,%rax
  40258a:	48 83 c4 08          	add    $0x8,%rsp
  40258e:	5b                   	pop    %rbx
  40258f:	5d                   	pop    %rbp
  402590:	41 5c                	pop    %r12
  402592:	41 5d                	pop    %r13
  402594:	c3                   	retq   
  402595:	48 c7 c0 ff ff ff ff 	mov    $0xffffffffffffffff,%rax
  40259c:	eb ec                	jmp    40258a <rio_read+0x6e>
  40259e:	b8 00 00 00 00       	mov    $0x0,%eax
  4025a3:	eb e5                	jmp    40258a <rio_read+0x6e>

00000000004025a5 <rio_readlineb>:
  4025a5:	41 55                	push   %r13
  4025a7:	41 54                	push   %r12
  4025a9:	55                   	push   %rbp
  4025aa:	53                   	push   %rbx
  4025ab:	48 83 ec 18          	sub    $0x18,%rsp
  4025af:	49 89 fd             	mov    %rdi,%r13
  4025b2:	48 89 f5             	mov    %rsi,%rbp
  4025b5:	49 89 d4             	mov    %rdx,%r12
  4025b8:	bb 01 00 00 00       	mov    $0x1,%ebx
  4025bd:	eb 18                	jmp    4025d7 <rio_readlineb+0x32>
  4025bf:	85 c0                	test   %eax,%eax
  4025c1:	75 55                	jne    402618 <rio_readlineb+0x73>
  4025c3:	48 83 fb 01          	cmp    $0x1,%rbx
  4025c7:	75 3d                	jne    402606 <rio_readlineb+0x61>
  4025c9:	b8 00 00 00 00       	mov    $0x0,%eax
  4025ce:	eb 3d                	jmp    40260d <rio_readlineb+0x68>
  4025d0:	48 83 c3 01          	add    $0x1,%rbx
  4025d4:	48 89 d5             	mov    %rdx,%rbp
  4025d7:	4c 39 e3             	cmp    %r12,%rbx
  4025da:	73 2a                	jae    402606 <rio_readlineb+0x61>
  4025dc:	48 8d 74 24 0f       	lea    0xf(%rsp),%rsi
  4025e1:	ba 01 00 00 00       	mov    $0x1,%edx
  4025e6:	4c 89 ef             	mov    %r13,%rdi
  4025e9:	e8 2e ff ff ff       	callq  40251c <rio_read>
  4025ee:	83 f8 01             	cmp    $0x1,%eax
  4025f1:	75 cc                	jne    4025bf <rio_readlineb+0x1a>
  4025f3:	48 8d 55 01          	lea    0x1(%rbp),%rdx
  4025f7:	0f b6 44 24 0f       	movzbl 0xf(%rsp),%eax
  4025fc:	88 45 00             	mov    %al,0x0(%rbp)
  4025ff:	3c 0a                	cmp    $0xa,%al
  402601:	75 cd                	jne    4025d0 <rio_readlineb+0x2b>
  402603:	48 89 d5             	mov    %rdx,%rbp
  402606:	c6 45 00 00          	movb   $0x0,0x0(%rbp)
  40260a:	48 89 d8             	mov    %rbx,%rax
  40260d:	48 83 c4 18          	add    $0x18,%rsp
  402611:	5b                   	pop    %rbx
  402612:	5d                   	pop    %rbp
  402613:	41 5c                	pop    %r12
  402615:	41 5d                	pop    %r13
  402617:	c3                   	retq   
  402618:	48 c7 c0 ff ff ff ff 	mov    $0xffffffffffffffff,%rax
  40261f:	eb ec                	jmp    40260d <rio_readlineb+0x68>

0000000000402621 <submitr>:
  402621:	41 57                	push   %r15
  402623:	41 56                	push   %r14
  402625:	41 55                	push   %r13
  402627:	41 54                	push   %r12
  402629:	55                   	push   %rbp
  40262a:	53                   	push   %rbx
  40262b:	48 81 ec 58 a0 00 00 	sub    $0xa058,%rsp
  402632:	49 89 fc             	mov    %rdi,%r12
  402635:	89 74 24 10          	mov    %esi,0x10(%rsp)
  402639:	49 89 d6             	mov    %rdx,%r14
  40263c:	48 89 4c 24 08       	mov    %rcx,0x8(%rsp)
  402641:	4c 89 44 24 18       	mov    %r8,0x18(%rsp)
  402646:	4d 89 cd             	mov    %r9,%r13
  402649:	48 8b ac 24 90 a0 00 	mov    0xa090(%rsp),%rbp
  402650:	00 
  402651:	c7 84 24 2c 20 00 00 	movl   $0x0,0x202c(%rsp)
  402658:	00 00 00 00 
  40265c:	ba 00 00 00 00       	mov    $0x0,%edx
  402661:	be 01 00 00 00       	mov    $0x1,%esi
  402666:	bf 02 00 00 00       	mov    $0x2,%edi
  40266b:	e8 c0 eb ff ff       	callq  401230 <socket@plt>
  402670:	85 c0                	test   %eax,%eax
  402672:	0f 88 6c 02 00 00    	js     4028e4 <submitr+0x2c3>
  402678:	89 c3                	mov    %eax,%ebx
  40267a:	4c 89 e7             	mov    %r12,%rdi
  40267d:	e8 9e ea ff ff       	callq  401120 <gethostbyname@plt>
  402682:	48 85 c0             	test   %rax,%rax
  402685:	0f 84 a5 02 00 00    	je     402930 <submitr+0x30f>
  40268b:	4c 8d bc 24 40 a0 00 	lea    0xa040(%rsp),%r15
  402692:	00 
  402693:	48 c7 84 24 40 a0 00 	movq   $0x0,0xa040(%rsp)
  40269a:	00 00 00 00 00 
  40269f:	48 c7 84 24 48 a0 00 	movq   $0x0,0xa048(%rsp)
  4026a6:	00 00 00 00 00 
  4026ab:	66 c7 84 24 40 a0 00 	movw   $0x2,0xa040(%rsp)
  4026b2:	00 02 00 
  4026b5:	48 8b 48 18          	mov    0x18(%rax),%rcx
  4026b9:	48 63 50 14          	movslq 0x14(%rax),%rdx
  4026bd:	48 8d bc 24 44 a0 00 	lea    0xa044(%rsp),%rdi
  4026c4:	00 
  4026c5:	48 8b 31             	mov    (%rcx),%rsi
  4026c8:	e8 d3 ea ff ff       	callq  4011a0 <memmove@plt>
  4026cd:	0f b7 74 24 10       	movzwl 0x10(%rsp),%esi
  4026d2:	66 c1 c6 08          	rol    $0x8,%si
  4026d6:	66 89 b4 24 42 a0 00 	mov    %si,0xa042(%rsp)
  4026dd:	00 
  4026de:	ba 10 00 00 00       	mov    $0x10,%edx
  4026e3:	4c 89 fe             	mov    %r15,%rsi
  4026e6:	89 df                	mov    %ebx,%edi
  4026e8:	e8 23 eb ff ff       	callq  401210 <connect@plt>
  4026ed:	85 c0                	test   %eax,%eax
  4026ef:	0f 88 a3 02 00 00    	js     402998 <submitr+0x377>
  4026f5:	4c 89 ef             	mov    %r13,%rdi
  4026f8:	e8 a3 e9 ff ff       	callq  4010a0 <strlen@plt>
  4026fd:	49 89 c7             	mov    %rax,%r15
  402700:	4c 89 f7             	mov    %r14,%rdi
  402703:	e8 98 e9 ff ff       	callq  4010a0 <strlen@plt>
  402708:	48 89 44 24 10       	mov    %rax,0x10(%rsp)
  40270d:	48 8b 7c 24 08       	mov    0x8(%rsp),%rdi
  402712:	e8 89 e9 ff ff       	callq  4010a0 <strlen@plt>
  402717:	48 03 44 24 10       	add    0x10(%rsp),%rax
  40271c:	48 89 44 24 10       	mov    %rax,0x10(%rsp)
  402721:	48 8b 7c 24 18       	mov    0x18(%rsp),%rdi
  402726:	e8 75 e9 ff ff       	callq  4010a0 <strlen@plt>
  40272b:	48 03 44 24 10       	add    0x10(%rsp),%rax
  402730:	4b 8d 14 7f          	lea    (%r15,%r15,2),%rdx
  402734:	48 8d 84 10 80 00 00 	lea    0x80(%rax,%rdx,1),%rax
  40273b:	00 
  40273c:	48 3d 00 20 00 00    	cmp    $0x2000,%rax
  402742:	0f 87 aa 02 00 00    	ja     4029f2 <submitr+0x3d1>
  402748:	48 8d b4 24 30 40 00 	lea    0x4030(%rsp),%rsi
  40274f:	00 
  402750:	b9 00 04 00 00       	mov    $0x400,%ecx
  402755:	b8 00 00 00 00       	mov    $0x0,%eax
  40275a:	48 89 f7             	mov    %rsi,%rdi
  40275d:	f3 48 ab             	rep stos %rax,%es:(%rdi)
  402760:	4c 89 ef             	mov    %r13,%rdi
  402763:	e8 89 fc ff ff       	callq  4023f1 <urlencode>
  402768:	85 c0                	test   %eax,%eax
  40276a:	0f 88 f5 02 00 00    	js     402a65 <submitr+0x444>
  402770:	4c 8d ac 24 30 60 00 	lea    0x6030(%rsp),%r13
  402777:	00 
  402778:	4d 89 e1             	mov    %r12,%r9
  40277b:	4c 8d 84 24 30 40 00 	lea    0x4030(%rsp),%r8
  402782:	00 
  402783:	4c 89 f1             	mov    %r14,%rcx
  402786:	48 8b 54 24 08       	mov    0x8(%rsp),%rdx
  40278b:	48 8d 35 56 1f 00 00 	lea    0x1f56(%rip),%rsi        # 4046e8 <trans_char+0x38>
  402792:	4c 89 ef             	mov    %r13,%rdi
  402795:	b8 00 00 00 00       	mov    $0x0,%eax
  40279a:	e8 51 ea ff ff       	callq  4011f0 <sprintf@plt>
  40279f:	4c 89 ef             	mov    %r13,%rdi
  4027a2:	e8 f9 e8 ff ff       	callq  4010a0 <strlen@plt>
  4027a7:	48 89 c2             	mov    %rax,%rdx
  4027aa:	4c 89 ee             	mov    %r13,%rsi
  4027ad:	89 df                	mov    %ebx,%edi
  4027af:	e8 0a fd ff ff       	callq  4024be <rio_writen>
  4027b4:	48 85 c0             	test   %rax,%rax
  4027b7:	0f 88 33 03 00 00    	js     402af0 <submitr+0x4cf>
  4027bd:	4c 8d a4 24 30 80 00 	lea    0x8030(%rsp),%r12
  4027c4:	00 
  4027c5:	89 de                	mov    %ebx,%esi
  4027c7:	4c 89 e7             	mov    %r12,%rdi
  4027ca:	e8 e5 fb ff ff       	callq  4023b4 <rio_readinitb>
  4027cf:	48 8d b4 24 30 60 00 	lea    0x6030(%rsp),%rsi
  4027d6:	00 
  4027d7:	ba 00 20 00 00       	mov    $0x2000,%edx
  4027dc:	4c 89 e7             	mov    %r12,%rdi
  4027df:	e8 c1 fd ff ff       	callq  4025a5 <rio_readlineb>
  4027e4:	48 85 c0             	test   %rax,%rax
  4027e7:	0f 8e 72 03 00 00    	jle    402b5f <submitr+0x53e>
  4027ed:	48 8d 8c 24 2c 20 00 	lea    0x202c(%rsp),%rcx
  4027f4:	00 
  4027f5:	48 8d 94 24 30 20 00 	lea    0x2030(%rsp),%rdx
  4027fc:	00 
  4027fd:	48 8d bc 24 30 60 00 	lea    0x6030(%rsp),%rdi
  402804:	00 
  402805:	4c 8d 44 24 20       	lea    0x20(%rsp),%r8
  40280a:	48 8d 35 4b 1f 00 00 	lea    0x1f4b(%rip),%rsi        # 40475c <trans_char+0xac>
  402811:	b8 00 00 00 00       	mov    $0x0,%eax
  402816:	e8 65 e9 ff ff       	callq  401180 <__isoc99_sscanf@plt>
  40281b:	48 8d b4 24 30 60 00 	lea    0x6030(%rsp),%rsi
  402822:	00 
  402823:	b9 03 00 00 00       	mov    $0x3,%ecx
  402828:	48 8d 3d 44 1f 00 00 	lea    0x1f44(%rip),%rdi        # 404773 <trans_char+0xc3>
  40282f:	f3 a6                	repz cmpsb %es:(%rdi),%ds:(%rsi)
  402831:	0f 97 c0             	seta   %al
  402834:	1c 00                	sbb    $0x0,%al
  402836:	84 c0                	test   %al,%al
  402838:	0f 84 9f 03 00 00    	je     402bdd <submitr+0x5bc>
  40283e:	48 8d b4 24 30 60 00 	lea    0x6030(%rsp),%rsi
  402845:	00 
  402846:	48 8d bc 24 30 80 00 	lea    0x8030(%rsp),%rdi
  40284d:	00 
  40284e:	ba 00 20 00 00       	mov    $0x2000,%edx
  402853:	e8 4d fd ff ff       	callq  4025a5 <rio_readlineb>
  402858:	48 85 c0             	test   %rax,%rax
  40285b:	7f be                	jg     40281b <submitr+0x1fa>
  40285d:	48 b8 45 72 72 6f 72 	movabs $0x43203a726f727245,%rax
  402864:	3a 20 43 
  402867:	48 ba 6c 69 65 6e 74 	movabs $0x6e7520746e65696c,%rdx
  40286e:	20 75 6e 
  402871:	48 89 45 00          	mov    %rax,0x0(%rbp)
  402875:	48 89 55 08          	mov    %rdx,0x8(%rbp)
  402879:	48 b8 61 62 6c 65 20 	movabs $0x206f7420656c6261,%rax
  402880:	74 6f 20 
  402883:	48 ba 72 65 61 64 20 	movabs $0x6165682064616572,%rdx
  40288a:	68 65 61 
  40288d:	48 89 45 10          	mov    %rax,0x10(%rbp)
  402891:	48 89 55 18          	mov    %rdx,0x18(%rbp)
  402895:	48 b8 64 65 72 73 20 	movabs $0x6f72662073726564,%rax
  40289c:	66 72 6f 
  40289f:	48 ba 6d 20 74 68 65 	movabs $0x657220656874206d,%rdx
  4028a6:	20 72 65 
  4028a9:	48 89 45 20          	mov    %rax,0x20(%rbp)
  4028ad:	48 89 55 28          	mov    %rdx,0x28(%rbp)
  4028b1:	48 b8 73 75 6c 74 20 	movabs $0x72657320746c7573,%rax
  4028b8:	73 65 72 
  4028bb:	48 89 45 30          	mov    %rax,0x30(%rbp)
  4028bf:	c7 45 38 76 65 72 00 	movl   $0x726576,0x38(%rbp)
  4028c6:	89 df                	mov    %ebx,%edi
  4028c8:	e8 23 e8 ff ff       	callq  4010f0 <close@plt>
  4028cd:	b8 ff ff ff ff       	mov    $0xffffffff,%eax
  4028d2:	48 81 c4 58 a0 00 00 	add    $0xa058,%rsp
  4028d9:	5b                   	pop    %rbx
  4028da:	5d                   	pop    %rbp
  4028db:	41 5c                	pop    %r12
  4028dd:	41 5d                	pop    %r13
  4028df:	41 5e                	pop    %r14
  4028e1:	41 5f                	pop    %r15
  4028e3:	c3                   	retq   
  4028e4:	48 b8 45 72 72 6f 72 	movabs $0x43203a726f727245,%rax
  4028eb:	3a 20 43 
  4028ee:	48 ba 6c 69 65 6e 74 	movabs $0x6e7520746e65696c,%rdx
  4028f5:	20 75 6e 
  4028f8:	48 89 45 00          	mov    %rax,0x0(%rbp)
  4028fc:	48 89 55 08          	mov    %rdx,0x8(%rbp)
  402900:	48 b8 61 62 6c 65 20 	movabs $0x206f7420656c6261,%rax
  402907:	74 6f 20 
  40290a:	48 ba 63 72 65 61 74 	movabs $0x7320657461657263,%rdx
  402911:	65 20 73 
  402914:	48 89 45 10          	mov    %rax,0x10(%rbp)
  402918:	48 89 55 18          	mov    %rdx,0x18(%rbp)
  40291c:	c7 45 20 6f 63 6b 65 	movl   $0x656b636f,0x20(%rbp)
  402923:	66 c7 45 24 74 00    	movw   $0x74,0x24(%rbp)
  402929:	b8 ff ff ff ff       	mov    $0xffffffff,%eax
  40292e:	eb a2                	jmp    4028d2 <submitr+0x2b1>
  402930:	48 b8 45 72 72 6f 72 	movabs $0x44203a726f727245,%rax
  402937:	3a 20 44 
  40293a:	48 ba 4e 53 20 69 73 	movabs $0x6e7520736920534e,%rdx
  402941:	20 75 6e 
  402944:	48 89 45 00          	mov    %rax,0x0(%rbp)
  402948:	48 89 55 08          	mov    %rdx,0x8(%rbp)
  40294c:	48 b8 61 62 6c 65 20 	movabs $0x206f7420656c6261,%rax
  402953:	74 6f 20 
  402956:	48 ba 72 65 73 6f 6c 	movabs $0x2065766c6f736572,%rdx
  40295d:	76 65 20 
  402960:	48 89 45 10          	mov    %rax,0x10(%rbp)
  402964:	48 89 55 18          	mov    %rdx,0x18(%rbp)
  402968:	48 b8 73 65 72 76 65 	movabs $0x6120726576726573,%rax
  40296f:	72 20 61 
  402972:	48 89 45 20          	mov    %rax,0x20(%rbp)
  402976:	c7 45 28 64 64 72 65 	movl   $0x65726464,0x28(%rbp)
  40297d:	66 c7 45 2c 73 73    	movw   $0x7373,0x2c(%rbp)
  402983:	c6 45 2e 00          	movb   $0x0,0x2e(%rbp)
  402987:	89 df                	mov    %ebx,%edi
  402989:	e8 62 e7 ff ff       	callq  4010f0 <close@plt>
  40298e:	b8 ff ff ff ff       	mov    $0xffffffff,%eax
  402993:	e9 3a ff ff ff       	jmpq   4028d2 <submitr+0x2b1>
  402998:	48 b8 45 72 72 6f 72 	movabs $0x55203a726f727245,%rax
  40299f:	3a 20 55 
  4029a2:	48 ba 6e 61 62 6c 65 	movabs $0x6f7420656c62616e,%rdx
  4029a9:	20 74 6f 
  4029ac:	48 89 45 00          	mov    %rax,0x0(%rbp)
  4029b0:	48 89 55 08          	mov    %rdx,0x8(%rbp)
  4029b4:	48 b8 20 63 6f 6e 6e 	movabs $0x7463656e6e6f6320,%rax
  4029bb:	65 63 74 
  4029be:	48 ba 20 74 6f 20 74 	movabs $0x20656874206f7420,%rdx
  4029c5:	68 65 20 
  4029c8:	48 89 45 10          	mov    %rax,0x10(%rbp)
  4029cc:	48 89 55 18          	mov    %rdx,0x18(%rbp)
  4029d0:	c7 45 20 73 65 72 76 	movl   $0x76726573,0x20(%rbp)
  4029d7:	66 c7 45 24 65 72    	movw   $0x7265,0x24(%rbp)
  4029dd:	c6 45 26 00          	movb   $0x0,0x26(%rbp)
  4029e1:	89 df                	mov    %ebx,%edi
  4029e3:	e8 08 e7 ff ff       	callq  4010f0 <close@plt>
  4029e8:	b8 ff ff ff ff       	mov    $0xffffffff,%eax
  4029ed:	e9 e0 fe ff ff       	jmpq   4028d2 <submitr+0x2b1>
  4029f2:	48 b8 45 72 72 6f 72 	movabs $0x52203a726f727245,%rax
  4029f9:	3a 20 52 
  4029fc:	48 ba 65 73 75 6c 74 	movabs $0x747320746c757365,%rdx
  402a03:	20 73 74 
  402a06:	48 89 45 00          	mov    %rax,0x0(%rbp)
  402a0a:	48 89 55 08          	mov    %rdx,0x8(%rbp)
  402a0e:	48 b8 72 69 6e 67 20 	movabs $0x6f6f7420676e6972,%rax
  402a15:	74 6f 6f 
  402a18:	48 ba 20 6c 61 72 67 	movabs $0x202e656772616c20,%rdx
  402a1f:	65 2e 20 
  402a22:	48 89 45 10          	mov    %rax,0x10(%rbp)
  402a26:	48 89 55 18          	mov    %rdx,0x18(%rbp)
  402a2a:	48 b8 49 6e 63 72 65 	movabs $0x6573616572636e49,%rax
  402a31:	61 73 65 
  402a34:	48 ba 20 53 55 42 4d 	movabs $0x5254494d42555320,%rdx
  402a3b:	49 54 52 
  402a3e:	48 89 45 20          	mov    %rax,0x20(%rbp)
  402a42:	48 89 55 28          	mov    %rdx,0x28(%rbp)
  402a46:	48 b8 5f 4d 41 58 42 	movabs $0x46554258414d5f,%rax
  402a4d:	55 46 00 
  402a50:	48 89 45 30          	mov    %rax,0x30(%rbp)
  402a54:	89 df                	mov    %ebx,%edi
  402a56:	e8 95 e6 ff ff       	callq  4010f0 <close@plt>
  402a5b:	b8 ff ff ff ff       	mov    $0xffffffff,%eax
  402a60:	e9 6d fe ff ff       	jmpq   4028d2 <submitr+0x2b1>
  402a65:	48 b8 45 72 72 6f 72 	movabs $0x52203a726f727245,%rax
  402a6c:	3a 20 52 
  402a6f:	48 ba 65 73 75 6c 74 	movabs $0x747320746c757365,%rdx
  402a76:	20 73 74 
  402a79:	48 89 45 00          	mov    %rax,0x0(%rbp)
  402a7d:	48 89 55 08          	mov    %rdx,0x8(%rbp)
  402a81:	48 b8 72 69 6e 67 20 	movabs $0x6e6f6320676e6972,%rax
  402a88:	63 6f 6e 
  402a8b:	48 ba 74 61 69 6e 73 	movabs $0x6e6120736e696174,%rdx
  402a92:	20 61 6e 
  402a95:	48 89 45 10          	mov    %rax,0x10(%rbp)
  402a99:	48 89 55 18          	mov    %rdx,0x18(%rbp)
  402a9d:	48 b8 20 69 6c 6c 65 	movabs $0x6c6167656c6c6920,%rax
  402aa4:	67 61 6c 
  402aa7:	48 ba 20 6f 72 20 75 	movabs $0x72706e7520726f20,%rdx
  402aae:	6e 70 72 
  402ab1:	48 89 45 20          	mov    %rax,0x20(%rbp)
  402ab5:	48 89 55 28          	mov    %rdx,0x28(%rbp)
  402ab9:	48 b8 69 6e 74 61 62 	movabs $0x20656c6261746e69,%rax
  402ac0:	6c 65 20 
  402ac3:	48 ba 63 68 61 72 61 	movabs $0x6574636172616863,%rdx
  402aca:	63 74 65 
  402acd:	48 89 45 30          	mov    %rax,0x30(%rbp)
  402ad1:	48 89 55 38          	mov    %rdx,0x38(%rbp)
  402ad5:	66 c7 45 40 72 2e    	movw   $0x2e72,0x40(%rbp)
  402adb:	c6 45 42 00          	movb   $0x0,0x42(%rbp)
  402adf:	89 df                	mov    %ebx,%edi
  402ae1:	e8 0a e6 ff ff       	callq  4010f0 <close@plt>
  402ae6:	b8 ff ff ff ff       	mov    $0xffffffff,%eax
  402aeb:	e9 e2 fd ff ff       	jmpq   4028d2 <submitr+0x2b1>
  402af0:	48 b8 45 72 72 6f 72 	movabs $0x43203a726f727245,%rax
  402af7:	3a 20 43 
  402afa:	48 ba 6c 69 65 6e 74 	movabs $0x6e7520746e65696c,%rdx
  402b01:	20 75 6e 
  402b04:	48 89 45 00          	mov    %rax,0x0(%rbp)
  402b08:	48 89 55 08          	mov    %rdx,0x8(%rbp)
  402b0c:	48 b8 61 62 6c 65 20 	movabs $0x206f7420656c6261,%rax
  402b13:	74 6f 20 
  402b16:	48 ba 77 72 69 74 65 	movabs $0x6f74206574697277,%rdx
  402b1d:	20 74 6f 
  402b20:	48 89 45 10          	mov    %rax,0x10(%rbp)
  402b24:	48 89 55 18          	mov    %rdx,0x18(%rbp)
  402b28:	48 b8 20 74 68 65 20 	movabs $0x7365722065687420,%rax
  402b2f:	72 65 73 
  402b32:	48 ba 75 6c 74 20 73 	movabs $0x7672657320746c75,%rdx
  402b39:	65 72 76 
  402b3c:	48 89 45 20          	mov    %rax,0x20(%rbp)
  402b40:	48 89 55 28          	mov    %rdx,0x28(%rbp)
  402b44:	66 c7 45 30 65 72    	movw   $0x7265,0x30(%rbp)
  402b4a:	c6 45 32 00          	movb   $0x0,0x32(%rbp)
  402b4e:	89 df                	mov    %ebx,%edi
  402b50:	e8 9b e5 ff ff       	callq  4010f0 <close@plt>
  402b55:	b8 ff ff ff ff       	mov    $0xffffffff,%eax
  402b5a:	e9 73 fd ff ff       	jmpq   4028d2 <submitr+0x2b1>
  402b5f:	48 b8 45 72 72 6f 72 	movabs $0x43203a726f727245,%rax
  402b66:	3a 20 43 
  402b69:	48 ba 6c 69 65 6e 74 	movabs $0x6e7520746e65696c,%rdx
  402b70:	20 75 6e 
  402b73:	48 89 45 00          	mov    %rax,0x0(%rbp)
  402b77:	48 89 55 08          	mov    %rdx,0x8(%rbp)
  402b7b:	48 b8 61 62 6c 65 20 	movabs $0x206f7420656c6261,%rax
  402b82:	74 6f 20 
  402b85:	48 ba 72 65 61 64 20 	movabs $0x7269662064616572,%rdx
  402b8c:	66 69 72 
  402b8f:	48 89 45 10          	mov    %rax,0x10(%rbp)
  402b93:	48 89 55 18          	mov    %rdx,0x18(%rbp)
  402b97:	48 b8 73 74 20 68 65 	movabs $0x6564616568207473,%rax
  402b9e:	61 64 65 
  402ba1:	48 ba 72 20 66 72 6f 	movabs $0x72206d6f72662072,%rdx
  402ba8:	6d 20 72 
  402bab:	48 89 45 20          	mov    %rax,0x20(%rbp)
  402baf:	48 89 55 28          	mov    %rdx,0x28(%rbp)
  402bb3:	48 b8 65 73 75 6c 74 	movabs $0x657320746c757365,%rax
  402bba:	20 73 65 
  402bbd:	48 89 45 30          	mov    %rax,0x30(%rbp)
  402bc1:	c7 45 38 72 76 65 72 	movl   $0x72657672,0x38(%rbp)
  402bc8:	c6 45 3c 00          	movb   $0x0,0x3c(%rbp)
  402bcc:	89 df                	mov    %ebx,%edi
  402bce:	e8 1d e5 ff ff       	callq  4010f0 <close@plt>
  402bd3:	b8 ff ff ff ff       	mov    $0xffffffff,%eax
  402bd8:	e9 f5 fc ff ff       	jmpq   4028d2 <submitr+0x2b1>
  402bdd:	48 8d b4 24 30 60 00 	lea    0x6030(%rsp),%rsi
  402be4:	00 
  402be5:	48 8d bc 24 30 80 00 	lea    0x8030(%rsp),%rdi
  402bec:	00 
  402bed:	ba 00 20 00 00       	mov    $0x2000,%edx
  402bf2:	e8 ae f9 ff ff       	callq  4025a5 <rio_readlineb>
  402bf7:	48 85 c0             	test   %rax,%rax
  402bfa:	0f 8e 97 00 00 00    	jle    402c97 <submitr+0x676>
  402c00:	8b 94 24 2c 20 00 00 	mov    0x202c(%rsp),%edx
  402c07:	81 fa c8 00 00 00    	cmp    $0xc8,%edx
  402c0d:	0f 85 08 01 00 00    	jne    402d1b <submitr+0x6fa>
  402c13:	48 8d b4 24 30 60 00 	lea    0x6030(%rsp),%rsi
  402c1a:	00 
  402c1b:	48 89 ef             	mov    %rbp,%rdi
  402c1e:	e8 4d e4 ff ff       	callq  401070 <strcpy@plt>
  402c23:	89 df                	mov    %ebx,%edi
  402c25:	e8 c6 e4 ff ff       	callq  4010f0 <close@plt>
  402c2a:	b9 04 00 00 00       	mov    $0x4,%ecx
  402c2f:	48 8d 3d 37 1b 00 00 	lea    0x1b37(%rip),%rdi        # 40476d <trans_char+0xbd>
  402c36:	48 89 ee             	mov    %rbp,%rsi
  402c39:	f3 a6                	repz cmpsb %es:(%rdi),%ds:(%rsi)
  402c3b:	0f 97 c0             	seta   %al
  402c3e:	1c 00                	sbb    $0x0,%al
  402c40:	0f be c0             	movsbl %al,%eax
  402c43:	85 c0                	test   %eax,%eax
  402c45:	0f 84 87 fc ff ff    	je     4028d2 <submitr+0x2b1>
  402c4b:	b9 05 00 00 00       	mov    $0x5,%ecx
  402c50:	48 8d 3d 1a 1b 00 00 	lea    0x1b1a(%rip),%rdi        # 404771 <trans_char+0xc1>
  402c57:	48 89 ee             	mov    %rbp,%rsi
  402c5a:	f3 a6                	repz cmpsb %es:(%rdi),%ds:(%rsi)
  402c5c:	0f 97 c0             	seta   %al
  402c5f:	1c 00                	sbb    $0x0,%al
  402c61:	0f be c0             	movsbl %al,%eax
  402c64:	85 c0                	test   %eax,%eax
  402c66:	0f 84 66 fc ff ff    	je     4028d2 <submitr+0x2b1>
  402c6c:	b9 03 00 00 00       	mov    $0x3,%ecx
  402c71:	48 8d 3d fe 1a 00 00 	lea    0x1afe(%rip),%rdi        # 404776 <trans_char+0xc6>
  402c78:	48 89 ee             	mov    %rbp,%rsi
  402c7b:	f3 a6                	repz cmpsb %es:(%rdi),%ds:(%rsi)
  402c7d:	0f 97 c0             	seta   %al
  402c80:	1c 00                	sbb    $0x0,%al
  402c82:	0f be c0             	movsbl %al,%eax
  402c85:	85 c0                	test   %eax,%eax
  402c87:	0f 84 45 fc ff ff    	je     4028d2 <submitr+0x2b1>
  402c8d:	b8 ff ff ff ff       	mov    $0xffffffff,%eax
  402c92:	e9 3b fc ff ff       	jmpq   4028d2 <submitr+0x2b1>
  402c97:	48 b8 45 72 72 6f 72 	movabs $0x43203a726f727245,%rax
  402c9e:	3a 20 43 
  402ca1:	48 ba 6c 69 65 6e 74 	movabs $0x6e7520746e65696c,%rdx
  402ca8:	20 75 6e 
  402cab:	48 89 45 00          	mov    %rax,0x0(%rbp)
  402caf:	48 89 55 08          	mov    %rdx,0x8(%rbp)
  402cb3:	48 b8 61 62 6c 65 20 	movabs $0x206f7420656c6261,%rax
  402cba:	74 6f 20 
  402cbd:	48 ba 72 65 61 64 20 	movabs $0x6174732064616572,%rdx
  402cc4:	73 74 61 
  402cc7:	48 89 45 10          	mov    %rax,0x10(%rbp)
  402ccb:	48 89 55 18          	mov    %rdx,0x18(%rbp)
  402ccf:	48 b8 74 75 73 20 6d 	movabs $0x7373656d20737574,%rax
  402cd6:	65 73 73 
  402cd9:	48 ba 61 67 65 20 66 	movabs $0x6d6f726620656761,%rdx
  402ce0:	72 6f 6d 
  402ce3:	48 89 45 20          	mov    %rax,0x20(%rbp)
  402ce7:	48 89 55 28          	mov    %rdx,0x28(%rbp)
  402ceb:	48 b8 20 72 65 73 75 	movabs $0x20746c7573657220,%rax
  402cf2:	6c 74 20 
  402cf5:	48 89 45 30          	mov    %rax,0x30(%rbp)
  402cf9:	c7 45 38 73 65 72 76 	movl   $0x76726573,0x38(%rbp)
  402d00:	66 c7 45 3c 65 72    	movw   $0x7265,0x3c(%rbp)
  402d06:	c6 45 3e 00          	movb   $0x0,0x3e(%rbp)
  402d0a:	89 df                	mov    %ebx,%edi
  402d0c:	e8 df e3 ff ff       	callq  4010f0 <close@plt>
  402d11:	b8 ff ff ff ff       	mov    $0xffffffff,%eax
  402d16:	e9 b7 fb ff ff       	jmpq   4028d2 <submitr+0x2b1>
  402d1b:	48 8d 4c 24 20       	lea    0x20(%rsp),%rcx
  402d20:	48 8d 35 01 1a 00 00 	lea    0x1a01(%rip),%rsi        # 404728 <trans_char+0x78>
  402d27:	48 89 ef             	mov    %rbp,%rdi
  402d2a:	b8 00 00 00 00       	mov    $0x0,%eax
  402d2f:	e8 bc e4 ff ff       	callq  4011f0 <sprintf@plt>
  402d34:	89 df                	mov    %ebx,%edi
  402d36:	e8 b5 e3 ff ff       	callq  4010f0 <close@plt>
  402d3b:	b8 ff ff ff ff       	mov    $0xffffffff,%eax
  402d40:	e9 8d fb ff ff       	jmpq   4028d2 <submitr+0x2b1>

0000000000402d45 <init_timeout>:
  402d45:	85 ff                	test   %edi,%edi
  402d47:	74 26                	je     402d6f <init_timeout+0x2a>
  402d49:	53                   	push   %rbx
  402d4a:	89 fb                	mov    %edi,%ebx
  402d4c:	78 1a                	js     402d68 <init_timeout+0x23>
  402d4e:	48 8d 35 71 f6 ff ff 	lea    -0x98f(%rip),%rsi        # 4023c6 <sigalrm_handler>
  402d55:	bf 0e 00 00 00       	mov    $0xe,%edi
  402d5a:	e8 b1 e3 ff ff       	callq  401110 <signal@plt>
  402d5f:	89 df                	mov    %ebx,%edi
  402d61:	e8 7a e3 ff ff       	callq  4010e0 <alarm@plt>
  402d66:	5b                   	pop    %rbx
  402d67:	c3                   	retq   
  402d68:	bb 00 00 00 00       	mov    $0x0,%ebx
  402d6d:	eb df                	jmp    402d4e <init_timeout+0x9>
  402d6f:	c3                   	retq   

0000000000402d70 <init_driver>:
  402d70:	41 54                	push   %r12
  402d72:	55                   	push   %rbp
  402d73:	53                   	push   %rbx
  402d74:	48 83 ec 10          	sub    $0x10,%rsp
  402d78:	48 89 fd             	mov    %rdi,%rbp
  402d7b:	be 01 00 00 00       	mov    $0x1,%esi
  402d80:	bf 0d 00 00 00       	mov    $0xd,%edi
  402d85:	e8 86 e3 ff ff       	callq  401110 <signal@plt>
  402d8a:	be 01 00 00 00       	mov    $0x1,%esi
  402d8f:	bf 1d 00 00 00       	mov    $0x1d,%edi
  402d94:	e8 77 e3 ff ff       	callq  401110 <signal@plt>
  402d99:	be 01 00 00 00       	mov    $0x1,%esi
  402d9e:	bf 1d 00 00 00       	mov    $0x1d,%edi
  402da3:	e8 68 e3 ff ff       	callq  401110 <signal@plt>
  402da8:	ba 00 00 00 00       	mov    $0x0,%edx
  402dad:	be 01 00 00 00       	mov    $0x1,%esi
  402db2:	bf 02 00 00 00       	mov    $0x2,%edi
  402db7:	e8 74 e4 ff ff       	callq  401230 <socket@plt>
  402dbc:	85 c0                	test   %eax,%eax
  402dbe:	0f 88 83 00 00 00    	js     402e47 <init_driver+0xd7>
  402dc4:	89 c3                	mov    %eax,%ebx
  402dc6:	48 8d 3d ac 19 00 00 	lea    0x19ac(%rip),%rdi        # 404779 <trans_char+0xc9>
  402dcd:	e8 4e e3 ff ff       	callq  401120 <gethostbyname@plt>
  402dd2:	48 85 c0             	test   %rax,%rax
  402dd5:	0f 84 b8 00 00 00    	je     402e93 <init_driver+0x123>
  402ddb:	49 89 e4             	mov    %rsp,%r12
  402dde:	48 c7 04 24 00 00 00 	movq   $0x0,(%rsp)
  402de5:	00 
  402de6:	48 c7 44 24 08 00 00 	movq   $0x0,0x8(%rsp)
  402ded:	00 00 
  402def:	66 c7 04 24 02 00    	movw   $0x2,(%rsp)
  402df5:	48 8b 48 18          	mov    0x18(%rax),%rcx
  402df9:	48 63 50 14          	movslq 0x14(%rax),%rdx
  402dfd:	48 8d 7c 24 04       	lea    0x4(%rsp),%rdi
  402e02:	48 8b 31             	mov    (%rcx),%rsi
  402e05:	e8 96 e3 ff ff       	callq  4011a0 <memmove@plt>
  402e0a:	66 c7 44 24 02 3c a4 	movw   $0xa43c,0x2(%rsp)
  402e11:	ba 10 00 00 00       	mov    $0x10,%edx
  402e16:	4c 89 e6             	mov    %r12,%rsi
  402e19:	89 df                	mov    %ebx,%edi
  402e1b:	e8 f0 e3 ff ff       	callq  401210 <connect@plt>
  402e20:	85 c0                	test   %eax,%eax
  402e22:	0f 88 d3 00 00 00    	js     402efb <init_driver+0x18b>
  402e28:	89 df                	mov    %ebx,%edi
  402e2a:	e8 c1 e2 ff ff       	callq  4010f0 <close@plt>
  402e2f:	66 c7 45 00 4f 4b    	movw   $0x4b4f,0x0(%rbp)
  402e35:	c6 45 02 00          	movb   $0x0,0x2(%rbp)
  402e39:	b8 00 00 00 00       	mov    $0x0,%eax
  402e3e:	48 83 c4 10          	add    $0x10,%rsp
  402e42:	5b                   	pop    %rbx
  402e43:	5d                   	pop    %rbp
  402e44:	41 5c                	pop    %r12
  402e46:	c3                   	retq   
  402e47:	48 b8 45 72 72 6f 72 	movabs $0x43203a726f727245,%rax
  402e4e:	3a 20 43 
  402e51:	48 ba 6c 69 65 6e 74 	movabs $0x6e7520746e65696c,%rdx
  402e58:	20 75 6e 
  402e5b:	48 89 45 00          	mov    %rax,0x0(%rbp)
  402e5f:	48 89 55 08          	mov    %rdx,0x8(%rbp)
  402e63:	48 b8 61 62 6c 65 20 	movabs $0x206f7420656c6261,%rax
  402e6a:	74 6f 20 
  402e6d:	48 ba 63 72 65 61 74 	movabs $0x7320657461657263,%rdx
  402e74:	65 20 73 
  402e77:	48 89 45 10          	mov    %rax,0x10(%rbp)
  402e7b:	48 89 55 18          	mov    %rdx,0x18(%rbp)
  402e7f:	c7 45 20 6f 63 6b 65 	movl   $0x656b636f,0x20(%rbp)
  402e86:	66 c7 45 24 74 00    	movw   $0x74,0x24(%rbp)
  402e8c:	b8 ff ff ff ff       	mov    $0xffffffff,%eax
  402e91:	eb ab                	jmp    402e3e <init_driver+0xce>
  402e93:	48 b8 45 72 72 6f 72 	movabs $0x44203a726f727245,%rax
  402e9a:	3a 20 44 
  402e9d:	48 ba 4e 53 20 69 73 	movabs $0x6e7520736920534e,%rdx
  402ea4:	20 75 6e 
  402ea7:	48 89 45 00          	mov    %rax,0x0(%rbp)
  402eab:	48 89 55 08          	mov    %rdx,0x8(%rbp)
  402eaf:	48 b8 61 62 6c 65 20 	movabs $0x206f7420656c6261,%rax
  402eb6:	74 6f 20 
  402eb9:	48 ba 72 65 73 6f 6c 	movabs $0x2065766c6f736572,%rdx
  402ec0:	76 65 20 
  402ec3:	48 89 45 10          	mov    %rax,0x10(%rbp)
  402ec7:	48 89 55 18          	mov    %rdx,0x18(%rbp)
  402ecb:	48 b8 73 65 72 76 65 	movabs $0x6120726576726573,%rax
  402ed2:	72 20 61 
  402ed5:	48 89 45 20          	mov    %rax,0x20(%rbp)
  402ed9:	c7 45 28 64 64 72 65 	movl   $0x65726464,0x28(%rbp)
  402ee0:	66 c7 45 2c 73 73    	movw   $0x7373,0x2c(%rbp)
  402ee6:	c6 45 2e 00          	movb   $0x0,0x2e(%rbp)
  402eea:	89 df                	mov    %ebx,%edi
  402eec:	e8 ff e1 ff ff       	callq  4010f0 <close@plt>
  402ef1:	b8 ff ff ff ff       	mov    $0xffffffff,%eax
  402ef6:	e9 43 ff ff ff       	jmpq   402e3e <init_driver+0xce>
  402efb:	48 b8 32 30 32 2e 31 	movabs $0x2e3032312e323032,%rax
  402f02:	32 30 2e 
  402f05:	48 89 45 00          	mov    %rax,0x0(%rbp)
  402f09:	c7 45 08 34 30 2e 38 	movl   $0x382e3034,0x8(%rbp)
  402f10:	66 c7 45 0c 35 00    	movw   $0x35,0xc(%rbp)
  402f16:	48 b8 45 72 72 6f 72 	movabs $0x55203a726f727245,%rax
  402f1d:	3a 20 55 
  402f20:	48 ba 6e 61 62 6c 65 	movabs $0x6f7420656c62616e,%rdx
  402f27:	20 74 6f 
  402f2a:	48 89 45 00          	mov    %rax,0x0(%rbp)
  402f2e:	48 89 55 08          	mov    %rdx,0x8(%rbp)
  402f32:	48 b8 20 63 6f 6e 6e 	movabs $0x7463656e6e6f6320,%rax
  402f39:	65 63 74 
  402f3c:	48 ba 20 74 6f 20 73 	movabs $0x76726573206f7420,%rdx
  402f43:	65 72 76 
  402f46:	48 89 45 10          	mov    %rax,0x10(%rbp)
  402f4a:	48 89 55 18          	mov    %rdx,0x18(%rbp)
  402f4e:	66 c7 45 20 65 72    	movw   $0x7265,0x20(%rbp)
  402f54:	c6 45 22 00          	movb   $0x0,0x22(%rbp)
  402f58:	89 df                	mov    %ebx,%edi
  402f5a:	e8 91 e1 ff ff       	callq  4010f0 <close@plt>
  402f5f:	b8 ff ff ff ff       	mov    $0xffffffff,%eax
  402f64:	e9 d5 fe ff ff       	jmpq   402e3e <init_driver+0xce>

0000000000402f69 <driver_post>:
  402f69:	53                   	push   %rbx
  402f6a:	4c 89 cb             	mov    %r9,%rbx
  402f6d:	45 85 c0             	test   %r8d,%r8d
  402f70:	75 18                	jne    402f8a <driver_post+0x21>
  402f72:	48 85 ff             	test   %rdi,%rdi
  402f75:	74 05                	je     402f7c <driver_post+0x13>
  402f77:	80 3f 00             	cmpb   $0x0,(%rdi)
  402f7a:	75 32                	jne    402fae <driver_post+0x45>
  402f7c:	66 c7 03 4f 4b       	movw   $0x4b4f,(%rbx)
  402f81:	c6 43 02 00          	movb   $0x0,0x2(%rbx)
  402f85:	44 89 c0             	mov    %r8d,%eax
  402f88:	5b                   	pop    %rbx
  402f89:	c3                   	retq   
  402f8a:	48 89 ce             	mov    %rcx,%rsi
  402f8d:	48 8d 3d f3 17 00 00 	lea    0x17f3(%rip),%rdi        # 404787 <trans_char+0xd7>
  402f94:	b8 00 00 00 00       	mov    $0x0,%eax
  402f99:	e8 22 e1 ff ff       	callq  4010c0 <printf@plt>
  402f9e:	66 c7 03 4f 4b       	movw   $0x4b4f,(%rbx)
  402fa3:	c6 43 02 00          	movb   $0x0,0x2(%rbx)
  402fa7:	b8 00 00 00 00       	mov    $0x0,%eax
  402fac:	eb da                	jmp    402f88 <driver_post+0x1f>
  402fae:	48 83 ec 08          	sub    $0x8,%rsp
  402fb2:	41 51                	push   %r9
  402fb4:	49 89 c9             	mov    %rcx,%r9
  402fb7:	49 89 d0             	mov    %rdx,%r8
  402fba:	48 89 f9             	mov    %rdi,%rcx
  402fbd:	48 89 f2             	mov    %rsi,%rdx
  402fc0:	be a4 3c 00 00       	mov    $0x3ca4,%esi
  402fc5:	48 8d 3d ad 17 00 00 	lea    0x17ad(%rip),%rdi        # 404779 <trans_char+0xc9>
  402fcc:	e8 50 f6 ff ff       	callq  402621 <submitr>
  402fd1:	48 83 c4 10          	add    $0x10,%rsp
  402fd5:	eb b1                	jmp    402f88 <driver_post+0x1f>

0000000000402fd7 <check>:
  402fd7:	89 f8                	mov    %edi,%eax
  402fd9:	c1 e8 1c             	shr    $0x1c,%eax
  402fdc:	74 1d                	je     402ffb <check+0x24>
  402fde:	b9 00 00 00 00       	mov    $0x0,%ecx
  402fe3:	83 f9 1f             	cmp    $0x1f,%ecx
  402fe6:	7f 0d                	jg     402ff5 <check+0x1e>
  402fe8:	89 f8                	mov    %edi,%eax
  402fea:	d3 e8                	shr    %cl,%eax
  402fec:	3c 0a                	cmp    $0xa,%al
  402fee:	74 11                	je     403001 <check+0x2a>
  402ff0:	83 c1 08             	add    $0x8,%ecx
  402ff3:	eb ee                	jmp    402fe3 <check+0xc>
  402ff5:	b8 01 00 00 00       	mov    $0x1,%eax
  402ffa:	c3                   	retq   
  402ffb:	b8 00 00 00 00       	mov    $0x0,%eax
  403000:	c3                   	retq   
  403001:	b8 00 00 00 00       	mov    $0x0,%eax
  403006:	c3                   	retq   

0000000000403007 <gencookie>:
  403007:	53                   	push   %rbx
  403008:	83 c7 01             	add    $0x1,%edi
  40300b:	e8 40 e0 ff ff       	callq  401050 <srandom@plt>
  403010:	e8 5b e1 ff ff       	callq  401170 <random@plt>
  403015:	48 89 c7             	mov    %rax,%rdi
  403018:	89 c3                	mov    %eax,%ebx
  40301a:	e8 b8 ff ff ff       	callq  402fd7 <check>
  40301f:	85 c0                	test   %eax,%eax
  403021:	74 ed                	je     403010 <gencookie+0x9>
  403023:	89 d8                	mov    %ebx,%eax
  403025:	5b                   	pop    %rbx
  403026:	c3                   	retq   
  403027:	66 0f 1f 84 00 00 00 	nopw   0x0(%rax,%rax,1)
  40302e:	00 00 

0000000000403030 <__libc_csu_init>:
  403030:	41 57                	push   %r15
  403032:	4c 8d 3d d7 3d 00 00 	lea    0x3dd7(%rip),%r15        # 406e10 <__frame_dummy_init_array_entry>
  403039:	41 56                	push   %r14
  40303b:	49 89 d6             	mov    %rdx,%r14
  40303e:	41 55                	push   %r13
  403040:	49 89 f5             	mov    %rsi,%r13
  403043:	41 54                	push   %r12
  403045:	41 89 fc             	mov    %edi,%r12d
  403048:	55                   	push   %rbp
  403049:	48 8d 2d c8 3d 00 00 	lea    0x3dc8(%rip),%rbp        # 406e18 <__do_global_dtors_aux_fini_array_entry>
  403050:	53                   	push   %rbx
  403051:	4c 29 fd             	sub    %r15,%rbp
  403054:	48 83 ec 08          	sub    $0x8,%rsp
  403058:	e8 a3 df ff ff       	callq  401000 <_init>
  40305d:	48 c1 fd 03          	sar    $0x3,%rbp
  403061:	74 1b                	je     40307e <__libc_csu_init+0x4e>
  403063:	31 db                	xor    %ebx,%ebx
  403065:	0f 1f 00             	nopl   (%rax)
  403068:	4c 89 f2             	mov    %r14,%rdx
  40306b:	4c 89 ee             	mov    %r13,%rsi
  40306e:	44 89 e7             	mov    %r12d,%edi
  403071:	41 ff 14 df          	callq  *(%r15,%rbx,8)
  403075:	48 83 c3 01          	add    $0x1,%rbx
  403079:	48 39 dd             	cmp    %rbx,%rbp
  40307c:	75 ea                	jne    403068 <__libc_csu_init+0x38>
  40307e:	48 83 c4 08          	add    $0x8,%rsp
  403082:	5b                   	pop    %rbx
  403083:	5d                   	pop    %rbp
  403084:	41 5c                	pop    %r12
  403086:	41 5d                	pop    %r13
  403088:	41 5e                	pop    %r14
  40308a:	41 5f                	pop    %r15
  40308c:	c3                   	retq   
  40308d:	0f 1f 00             	nopl   (%rax)

0000000000403090 <__libc_csu_fini>:
  403090:	c3                   	retq   

Disassembly of section .fini:

0000000000403094 <_fini>:
  403094:	48 83 ec 08          	sub    $0x8,%rsp
  403098:	48 83 c4 08          	add    $0x8,%rsp
  40309c:	c3                   	retq   
